
ec0b0d54-d7a4-450b-9a45-4b49f39ff2f0.elf:     file format elf32-littlearm
ec0b0d54-d7a4-450b-9a45-4b49f39ff2f0.elf
architecture: armv8-a, flags 0x00000150:
HAS_SYMS, DYNAMIC, D_PAGED
start address 0x00000020

Program Header:
0x70000001 off    0x00018f7c vaddr 0x00008f7c paddr 0x00008f7c align 2**2
         filesz 0x00000648 memsz 0x00000648 flags r--
    LOAD off    0x00010000 vaddr 0x00000000 paddr 0x00000000 align 2**16
         filesz 0x00007c88 memsz 0x00007c88 flags r-x
    LOAD off    0x00017c88 vaddr 0x00007c88 paddr 0x00007c88 align 2**16
         filesz 0x00001b64 memsz 0x00001b64 flags r--
    LOAD off    0x0001a000 vaddr 0x0000a000 paddr 0x0000a000 align 2**16
         filesz 0x000002a0 memsz 0x0000a338 flags rw-
 DYNAMIC off    0x00019718 vaddr 0x00009718 paddr 0x00009718 align 2**2
         filesz 0x00000088 memsz 0x00000088 flags rw-

Dynamic Section:
  HASH                 0x000097d4
  GNU_HASH             0x00008f40
  STRTAB               0x000097d0
  SYMTAB               0x000097a0
  STRSZ                0x00000001
  SYMENT               0x00000010
  DEBUG                0x00000000
  REL                  0x00009600
  RELSZ                0x00000118
  RELENT               0x00000008
  FLAGS_1              0x08000000
  RELCOUNT             0x00000017
private flags = 5000400: [Version5 EABI] [hard-float ABI]

Sections:
Idx Name          Size      VMA       LMA       File off  Algn
  0 .ta_head      00000020  00000000  00000000  00010000  2**3
                  CONTENTS, ALLOC, LOAD, DATA
  1 .text         00007c68  00000020  00000020  00010020  2**3
                  CONTENTS, ALLOC, LOAD, READONLY, CODE
  2 .rodata       000011c6  00007c88  00007c88  00017c88  2**2
                  CONTENTS, ALLOC, LOAD, READONLY, DATA
  3 .ARM.extab    000000f0  00008e50  00008e50  00018e50  2**2
                  CONTENTS, ALLOC, LOAD, READONLY, DATA
  4 .gnu.hash     00000018  00008f40  00008f40  00018f40  2**2
                  CONTENTS, ALLOC, LOAD, READONLY, DATA
  5 .ARM.extab.text.__aeabi_ldivmod 0000000c  00008f58  00008f58  00018f58  2**2
                  CONTENTS, ALLOC, LOAD, READONLY, DATA
  6 .ARM.extab.text.__aeabi_uldivmod 0000000c  00008f64  00008f64  00018f64  2**2
                  CONTENTS, ALLOC, LOAD, READONLY, DATA
  7 .ARM.extab.text.utee_panic 0000000c  00008f70  00008f70  00018f70  2**2
                  CONTENTS, ALLOC, LOAD, READONLY, DATA
  8 .ARM.exidx    00000648  00008f7c  00008f7c  00018f7c  2**2
                  CONTENTS, ALLOC, LOAD, READONLY, DATA
  9 .got          0000003c  000095c4  000095c4  000195c4  2**2
                  CONTENTS, ALLOC, LOAD, DATA
 10 .dynsym       00000030  000097a0  000097a0  000197a0  2**2
                  CONTENTS, ALLOC, LOAD, READONLY, DATA
 11 .rel.got      00000060  000096b8  000096b8  000196b8  2**2
                  CONTENTS, ALLOC, LOAD, READONLY, DATA
 12 .dynamic      00000088  00009718  00009718  00019718  2**2
                  CONTENTS, ALLOC, LOAD, DATA
 13 .dynstr       00000001  000097d0  000097d0  000197d0  2**0
                  CONTENTS, ALLOC, LOAD, READONLY, DATA
 14 .hash         00000018  000097d4  000097d4  000197d4  2**2
                  CONTENTS, ALLOC, LOAD, READONLY, DATA
 15 .data         000002a0  0000a000  0000a000  0001a000  2**2
                  CONTENTS, ALLOC, LOAD, DATA
 16 .bss          0000a098  0000a2a0  0000a2a0  0001a2a0  2**2
                  ALLOC
 17 .debug_info   000136b9  00000000  00000000  0001a2a0  2**0
                  CONTENTS, READONLY, DEBUGGING
 18 .debug_abbrev 0000324d  00000000  00000000  0002d959  2**0
                  CONTENTS, READONLY, DEBUGGING
 19 .debug_loc    00013b33  00000000  00000000  00030ba6  2**0
                  CONTENTS, READONLY, DEBUGGING
 20 .debug_aranges 00000548  00000000  00000000  000446e0  2**3
                  CONTENTS, READONLY, DEBUGGING
 21 .debug_ranges 00000a30  00000000  00000000  00044c28  2**3
                  CONTENTS, READONLY, DEBUGGING
 22 .debug_macro  000143d2  00000000  00000000  00045658  2**0
                  CONTENTS, READONLY, DEBUGGING
 23 .debug_line   0000d7fe  00000000  00000000  00059a2a  2**0
                  CONTENTS, READONLY, DEBUGGING
 24 .debug_str    00011f59  00000000  00000000  00067228  2**0
                  CONTENTS, READONLY, DEBUGGING
 25 .comment      0000005a  00000000  00000000  00079181  2**0
                  CONTENTS, READONLY
 26 .ARM.attributes 00000031  00000000  00000000  000791db  2**0
                  CONTENTS, READONLY
 27 .debug_frame  00001ee4  00000000  00000000  0007920c  2**2
                  CONTENTS, READONLY, DEBUGGING
 28 .rel.dyn      000000b8  00009600  00009600  00019600  2**2
                  CONTENTS, ALLOC, LOAD, READONLY, DATA
SYMBOL TABLE:
00000000 l    d  .ta_head	00000000 .ta_head
00000020 l    d  .text	00000000 .text
00007c88 l    d  .rodata	00000000 .rodata
00008e50 l    d  .ARM.extab	00000000 .ARM.extab
00008f40 l    d  .gnu.hash	00000000 .gnu.hash
00008f58 l    d  .ARM.extab.text.__aeabi_ldivmod	00000000 .ARM.extab.text.__aeabi_ldivmod
00008f64 l    d  .ARM.extab.text.__aeabi_uldivmod	00000000 .ARM.extab.text.__aeabi_uldivmod
00008f70 l    d  .ARM.extab.text.utee_panic	00000000 .ARM.extab.text.utee_panic
00008f7c l    d  .ARM.exidx	00000000 .ARM.exidx
000095c4 l    d  .got	00000000 .got
000096b8 l    d  .rel.got	00000000 .rel.got
00009718 l    d  .dynamic	00000000 .dynamic
000097a0 l    d  .dynsym	00000000 .dynsym
000097d0 l    d  .dynstr	00000000 .dynstr
000097d4 l    d  .hash	00000000 .hash
0000a000 l    d  .data	00000000 .data
0000a2a0 l    d  .bss	00000000 .bss
00000000 l    d  .debug_info	00000000 .debug_info
00000000 l    d  .debug_abbrev	00000000 .debug_abbrev
00000000 l    d  .debug_loc	00000000 .debug_loc
00000000 l    d  .debug_aranges	00000000 .debug_aranges
00000000 l    d  .debug_ranges	00000000 .debug_ranges
00000000 l    d  .debug_macro	00000000 .debug_macro
00000000 l    d  .debug_line	00000000 .debug_line
00000000 l    d  .debug_str	00000000 .debug_str
00000000 l    d  .comment	00000000 .comment
00000000 l    d  .ARM.attributes	00000000 .ARM.attributes
00000000 l    d  .debug_frame	00000000 .debug_frame
00009600 l    d  .rel.dyn	00000000 .rel.dyn
00000000 l    df *ABS*	00000000 user_ta_header.c
00007cd4 l     O .rodata	00000004 __compound_literal.5
00007cd8 l     O .rodata	00000004 __compound_literal.4
00007cdc l     O .rodata	00000004 __compound_literal.3
00007ce0 l     O .rodata	00000001 __compound_literal.2
00007ce1 l     O .rodata	00000001 __compound_literal.1
00007ce2 l     O .rodata	00000001 __compound_literal.0
00000000 l    df *ABS*	00000000 Lab_TA.c
00007c98 l     O .rodata	00000010 __func__.6365
00007ca8 l     O .rodata	0000000c __func__.6382
00007cb4 l     O .rodata	00000010 __func__.6345
00007cc4 l     O .rodata	0000000b __func__.6353
00000000 l    df *ABS*	00000000 snprintk.c
00008261 l     O .rodata	00000011 HEXDIGITS
00008272 l     O .rodata	00000011 hexdigits
00000000 l    df *ABS*	00000000 trace.c
0000829d l     O .rodata	00000005 lvl_strs.5695
00000000 l    df *ABS*	00000000 arm32_aeabi_ldivmod_a32.o
00000000 l    df *ABS*	00000000 trace_ext.c
00000000 l    df *ABS*	00000000 tee_api.c
000082b3 l     O .rodata	0000000b __func__.6862
0000a2c4 l     O .bss	00000004 tee_api_instance_data
00000000 l    df *ABS*	00000000 tee_api_objects.c
00000000 l    df *ABS*	00000000 tee_api_operations.c
00001704 l     F .text	00000158 tee_buffer_update
00000000 l    df *ABS*	00000000 user_ta_entry.c
00002dcc l     F .text	0000001c ta_header_get_session
00002de8 l     F .text	00000068 ta_header_remove_session
00002e50 l     F .text	00000010 ta_header_save_params.part.0
0000a2e8 l     O .bss	00000001 init_done
0000a27c l     O .data	00000008 ta_sessions
00000000 l    df *ABS*	00000000 utee_syscalls_a32.o
00000000 l    df *ABS*	00000000 gprof_a32.o
00000000 l    df *ABS*	00000000 tee_api_arith_mpi.c
000034a8 l     F .text	00000020 api_panic
000034c8 l     F .text	00000020 mpi_panic
000034e8 l     F .text	00000044 get_const_mpi
0000352c l     F .text	00000010 mpi_is_odd
0000353c l     F .text	00000016 rng_read
00003552 l     F .text	0000001c put_mpi
0000356e l     F .text	0000045e mpi_egcd
000039cc l     F .text	00000026 get_mpi
000039f2 l     F .text	0000008a bigint_binary
0000a2f0 l     O .bss	00002000 data.6862
00003c88 l     F .text	000000e8 bigint_binary_mod
00008375 l     O .rodata	0000000e __func__.6891
00008383 l     O .rodata	00000009 __func__.7130
0000838c l     O .rodata	0000000e __func__.6990
0000839a l     O .rodata	00000012 __func__.6863
000083ac l     O .rodata	0000000f __func__.6901
000083bb l     O .rodata	0000001f __func__.6919
000083da l     O .rodata	00000019 __func__.6926
000083f3 l     O .rodata	00000012 __func__.7001
00008405 l     O .rodata	00000015 __func__.6956
0000841a l     O .rodata	0000000e __func__.7028
00008428 l     O .rodata	0000000e __func__.7056
00008436 l     O .rodata	0000000e __func__.7062
00008444 l     O .rodata	00000011 __func__.7091
00008455 l     O .rodata	00000018 __func__.7107
0000846d l     O .rodata	0000001d __func__.7187
0000848a l     O .rodata	00000019 __func__.7237
000084a3 l     O .rodata	00000015 __func__.7251
00000000 l    df *ABS*	00000000 bignum.c
000044ec l     F .text	0000003a mpi_get_digit
00004526 l     F .text	0000005c mpi_sub_hlp
00004582 l     F .text	000004b8 mpi_mul_hlp
00004a3a l     F .text	00000040 mbedtls_mpi_mod_int.part.0
00005a74 l     F .text	0000006e mpi_write_hlp
00005bf8 l     F .text	00000050 mpi_check_small_factors
000062ee l     F .text	0000021a mpi_miller_rabin
00007cec l     O .rodata	000002a0 small_prime
00007f8c l     O .rodata	00000024 gcd_pairs
00000000 l    df *ABS*	00000000 bget_malloc.c
00006c98 l     F .text	00000030 raw_malloc_return_hook.isra.0
00006cc8 l     F .text	000000d8 create_free_block.constprop.0
00008d05 l     O .rodata	00000012 __func__.5988
00008d17 l     O .rodata	00000005 __func__.5844
00008d1c l     O .rodata	00000006 __func__.5859
00008d22 l     O .rodata	00000005 __func__.5876
00008d27 l     O .rodata	00000006 __func__.5868
00008d2d l     O .rodata	00000006 __func__.5885
00008d33 l     O .rodata	00000007 __func__.5895
00008d3a l     O .rodata	0000000d __func__.6024
00008d47 l     O .rodata	0000000c __func__.5998
00008d53 l     O .rodata	0000000b __func__.6009
00008d5e l     O .rodata	00000010 __func__.6076
00008d6e l     O .rodata	0000000e __func__.6030
00008d7c l     O .rodata	00000013 __func__.5936
0000c2f4 l     O .bss	00000038 mstats
0000c32c l     O .bss	00000004 malloc_pool_len
0000c330 l     O .bss	00000004 malloc_pool
0000a284 l     O .data	0000001c malloc_poolset
00000000 l    df *ABS*	00000000 mempool.c
00008e06 l     O .rodata	00000013 __func__.5752
00008e19 l     O .rodata	0000000e __func__.5761
00000000 l    df *ABS*	00000000 assert.c
00000000 l    df *ABS*	00000000 snprintf.c
00000000 l    df *ABS*	00000000 aeabi_unwind.c
00000000 l    df *ABS*	00000000 memchr.c
00000000 l    df *ABS*	00000000 strlen.c
00000000 l    df *ABS*	00000000 arm32_aeabi_ldivmod.c
00000000 l    df *ABS*	00000000 tee_api_panic.c
00000000 l    df *ABS*	00000000 memcmp.c
00000000 l    df *ABS*	00000000 memcpy.c
00000000 l    df *ABS*	00000000 memmove.c
00000000 l    df *ABS*	00000000 memset.c
00000000 l    df *ABS*	00000000 buf_compare_ct.c
00000000 l    df *ABS*	00000000 
00009718 l     O *ABS*	00000000 _DYNAMIC
000095c4 l     O *ABS*	00000000 _GLOBAL_OFFSET_TABLE_
00007c48 l     F .text	00000010 __utee_log_from_thumb
00007c58 l     F .text	00000010 __utee_check_access_rights_from_thumb
00007c68 l     F .text	00000010 __utee_panic_from_thumb
00007c78 l     F .text	00000010 __utee_cache_operation_from_thumb
00000c5c g     F .text	00000022 putchar
000011e0 g     F .text	00000070 TEE_PopulateTransientObject
000043fe g     F .text	00000004 TEE_BigIntConvertToFMM
00004140 g     F .text	00000008 TEE_BigIntSquareMod
00003d70 g     F .text	000000f4 TEE_BigIntShiftRight
00003380 g     F .text	00000018 utee_storage_obj_create
00004b08 g     F .text	000000a8 mbedtls_mpi_grow
00007aa2 g     F .text	00000100 __l_divmod
00003000 g     F .text	00000014 utee_return
000021ec g     F .text	00000030 TEE_DigestUpdate
00000f5c g     F .text	00000004 TEE_Realloc
00002054 g     F .text	000000f4 TEE_SetOperationKey2
00000bfe g     F .text	0000003a printf
00003014 g     F .text	00000014 utee_log
00001250 g     F .text	00000022 TEE_InitRefAttribute
00000d70 g     F .text	00000070 TEE_InvokeTACommand
00004a88 g     F .text	00000024 mbedtls_mpi_init_mempool
00004f6e g     F .text	00000046 mbedtls_mpi_write_binary
000027d8 g     F .text	00000114 TEE_AEEncryptFinal
0000a204 g     O .data	00000004 PublicKey2048Len_E
00000a1c g     F .text	0000000e vsnprintk
000053ce g     F .text	00000030 mbedtls_mpi_sub_int
00007bd8 g     F .text	00000034 memmove
000079c8 g     F .text	0000001e snprintf
00003c62 g     F .text	00000026 TEE_BigIntCmpS32
00001272 g     F .text	00000022 TEE_InitValueAttribute
00004bb0 g     F .text	000000c0 mbedtls_mpi_shrink
000079f4 g     F .text	00000002 __aeabi_unwind_cpp_pr0
00003eb0 g     F .text	0000001c TEE_BigIntAdd
00003054 g     F .text	00000014 utee_get_property_name_to_index
00007ce4 g     O .rodata	00000004 ta_heap_size
000011b0 g     F .text	00000030 TEE_ResetTransientObject
00003138 g     F .text	00000018 utee_cryp_state_alloc
00003308 g     F .text	00000018 utee_authenc_enc_final
000054ea g     F .text	00000126 mbedtls_mpi_read_string
0000a104 g     O .data	00000100 Publickey2048_E
0000228c g     F .text	00000056 TEE_CipherInit
00003ee8 g     F .text	00000058 TEE_BigIntNeg
00000020 g       .text	00000000 __text_start
00001550 g     F .text	0000002c TEE_StartPersistentObjectEnumerator
0000504c g     F .text	00000078 mbedtls_mpi_shift_r
00007834 g     F .text	00000054 malloc_buffer_overlaps_heap
00004108 g     F .text	0000001c TEE_BigIntSubMod
00006862 g     F .text	0000013a mbedtls_mpi_gen_prime
00004e20 g     F .text	00000022 mbedtls_mpi_get_bit
00004f08 g     F .text	00000066 mbedtls_mpi_read_binary
00002654 g     F .text	00000070 TEE_AEInit
00000a74 g     F .text	0000013c trace_printf
00005c70 g     F .text	000000c4 mbedtls_mpi_montmul
00007bc2 g     F .text	00000016 memcpy
00003164 g     F .text	00000014 utee_cryp_state_free
00004402 g     F .text	0000004a TEE_BigIntConvertFromFMM
00007ba2 g     F .text	00000004 TEE_Panic
00000bcc g     F .text	00000018 __aeabi_uldivmod
00002148 g     F .text	000000a4 TEE_CopyOperation
00000c38 g     F .text	00000024 puts
0000444c g     F .text	000000a0 TEE_BigIntComputeFMM
000072b8 g     F .text	00000020 malloc_get_stats
000031e4 g     F .text	00000018 utee_cipher_final
00000efc g     F .text	00000016 TEE_GetREETime
000014f0 g     F .text	00000038 TEE_AllocatePersistentObjectEnumerator
0000a20c g     O .data	0000006c ta_props
000029f4 g     F .text	000000c4 TEE_AsymmetricEncrypt
000072d8 g     F .text	00000038 malloc
0000a2a0 g     O .bss	00000004 maxKeySize
0000324c g     F .text	00000014 utee_cryp_obj_close
0000132c g     F .text	00000048 TEE_GenerateKey
000079e6 g     F .text	0000000e vsnprintf
0000a208 g     O .data	00000004 trace_level
00003c2c g     F .text	00000036 TEE_BigIntCmp
00007cd0 g     O .rodata	00000004 ta_num_props
00007128 g     F .text	0000007c bgetr
000032f0 g     F .text	00000018 utee_authenc_update_payload
0000795c g     F .text	00000030 mempool_free
000022e2 g     F .text	000000e6 TEE_CipherUpdate
00003b40 g     F .text	00000058 TEE_BigIntConvertToOctetString
00001eca g     F .text	000000ba TEE_GetOperationInfoMultiple
00003488 g     F .text	00000014 utee_cache_operation
00004ec6 g     F .text	00000036 mbedtls_mpi_bitlen
000032c4 g     F .text	00000018 utee_authenc_init
00003e64 g     F .text	0000002a TEE_BigIntGetBit
00007ce8 g     O .rodata	00000003 trace_ext_prefix
00006ed4 g     F .text	0000005c bgetz
00000e4c g     F .text	0000000c TEE_GetInstanceData
00000e7a g     F .text	0000001e TEE_Wait
00003438 g     F .text	00000014 utee_storage_obj_write
000053fe g     F .text	000000ce mbedtls_mpi_mul_mpi
000079f8 g     F .text	00000002 __aeabi_unwind_cpp_pr2
00000f6a g     F .text	00000006 TEE_CacheFlush
00000024 g     F .text	00000002 TA_DestroyEntryPoint
00004a7a g     F .text	0000000e mbedtls_mpi_init
00004e94 g     F .text	00000032 mbedtls_mpi_lsb
0000798c g     F .text	00000028 _assert_log
000043fa g     F .text	00000004 TEE_BigIntFMMContextSizeInU32
000025ec g     F .text	00000068 TEE_MACCompareFinal
000014aa g     F .text	00000046 TEE_RenamePersistentObject
0000221c g     F .text	00000070 TEE_DigestDoFinal
0000a2bc g     O .bss	00000004 PublicKeyObjHandle
00003a7c g     F .text	00000044 _TEE_MathAPI_Init
0000530a g     F .text	00000048 mbedtls_mpi_add_mpi
00003410 g     F .text	00000014 utee_storage_next_enum
0000c334 g     O .bss	00008000 ta_heap
00004148 g     F .text	000000a4 TEE_BigIntInvMod
0000002a g     F .text	00000002 TA_CloseSessionEntryPoint
00002ab8 g     F .text	000000c8 TEE_AsymmetricDecrypt
00001374 g     F .text	00000064 TEE_OpenPersistentObject
00005352 g     F .text	0000004c mbedtls_mpi_sub_mpi
00003028 g     F .text	00000014 __utee_panic
00003150 g     F .text	00000014 utee_cryp_state_copy
0000002c g     F .text	00000348 TA_InvokeCommandEntryPoint
000078cc g     F .text	0000006c mempool_alloc
00003238 g     F .text	00000014 utee_cryp_obj_alloc
00003124 g     F .text	00000014 utee_set_ta_time
00003224 g     F .text	00000014 utee_cryp_obj_get_attr
00007938 g     F .text	00000024 mempool_calloc
000012fc g     F .text	00000030 TEE_CopyObjectAttributes
00007320 g     F .text	00000048 calloc
00000f12 g     F .text	0000004a TEE_Malloc
000030e8 g     F .text	00000014 utee_mask_cancellation
00003260 g     F .text	00000014 utee_cryp_obj_reset
00000e34 g     F .text	0000000a TEE_CheckMemoryAccessRights
00014338 g       .bss	00000000 __gprof_buf_end
00007a26 g     F .text	0000007c __ul_divmod
00004de8 g     F .text	00000038 mbedtls_mpi_lset
000015d0 g     F .text	00000040 TEE_ReadObjectData
00001048 g     F .text	00000070 TEE_GetObjectBufferAttribute
00000026 g     F .text	00000004 TA_OpenSessionEntryPoint
000033fc g     F .text	00000014 utee_storage_start_enum
0000185c g     F .text	00000026 TEE_FreeOperation
000033ac g     F .text	00000014 utee_storage_obj_rename
0000a2ec g     O .bss	00000004 ta_param_types
000059a8 g     F .text	0000002e mbedtls_mpi_div_int
00000f78 g     F .text	00000038 __utee_from_attr
000043bc g     F .text	00000030 TEE_BigIntIsProbablePrime
000054cc g     F .text	0000001e mbedtls_mpi_mul_int
00001470 g     F .text	00000024 TEE_CloseAndDeletePersistentObject1
00005d58 g     F .text	00000450 mbedtls_mpi_exp_mod
00004cf4 g     F .text	0000006c mbedtls_mpi_safe_cond_assign
0000303c g     F .text	00000018 utee_get_property
000028ec g     F .text	00000108 TEE_AEDecryptFinal
00003ac0 g     F .text	00000040 TEE_BigIntInit
00000e58 g     F .text	00000004 TEE_MemMove
00003b00 g     F .text	00000040 TEE_BigIntConvertFromOctetString
0000a2a4 g     O .bss	00000018 PublicKeyAttr
0000a278 g     O .data	00000004 _ref__utee_mcount
000050c4 g     F .text	00000062 mbedtls_mpi_cmp_abs
000024e0 g     F .text	00000056 TEE_MACInit
00002b80 g     F .text	000000bc TEE_AsymmetricSignDigest
000079fa g     F .text	0000001c memchr
00000dfc g     F .text	0000001c TEE_UnmaskCancellation
00000fb0 g     F .text	0000002c TEE_GetObjectInfo
0000699c g     F .text	000002fc mbedtls_mpi_self_test
00003398 g     F .text	00000014 utee_storage_obj_del
0000270a g     F .text	000000ce TEE_AEUpdate
00003460 g     F .text	00000014 utee_storage_obj_seek
00001180 g     F .text	00000030 TEE_FreeTransientObject
000051ae g     F .text	00000030 mbedtls_mpi_cmp_int
0000318c g     F .text	00000014 utee_hash_update
00002db4 g     F .text	00000018 rand
0000349c  w    F .text	0000000c __utee_mcount
00001ea8 g     F .text	00000022 TEE_GetOperationInfo
0000409c g     F .text	00000050 TEE_BigIntMod
00005a3a g     F .text	0000003a mbedtls_mpi_mod_int
00003080 g     F .text	00000014 utee_close_ta_session
00003fee g     F .text	000000ae TEE_BigIntDiv
0000a000 g     O .data	00000004 PublicKey2048Len_N
00004c70 g     F .text	00000056 mbedtls_mpi_copy
000072a4 g     F .text	00000014 malloc_reset_stats
000031cc g     F .text	00000018 utee_cipher_update
00000ffc g     F .text	00000020 TEE_RestrictObjectUsage1
00007368 g     F .text	00000038 realloc
00004cc6 g     F .text	0000002e mbedtls_mpi_swap
00007888 g     F .text	00000044 mempool_alloc_pool
00003350 g     F .text	00000018 utee_asymm_verify
00003f40 g     F .text	000000a8 TEE_BigIntMul
00001f84 g     F .text	00000040 TEE_ResetOperation
00004fb4 g     F .text	00000098 mbedtls_mpi_shift_l
00005126 g     F .text	00000088 mbedtls_mpi_cmp_mpi
00000e60 g     F .text	00000004 TEE_MemFill
00007ba6 g     F .text	0000001c memcmp
00007684 g     F .text	000000d4 malloc_add_pool
00002536 g     F .text	0000004e TEE_MACUpdate
00000a60 g     F .text	00000014 trace_get_level
000051de g     F .text	000000b2 mbedtls_mpi_add_abs
000032b0 g     F .text	00000014 utee_cryp_random_number_generate
0000101c g     F .text	0000002c TEE_RestrictObjectUsage
000043f2 g     F .text	00000008 TEE_BigIntFMMSizeInU32
000043ec g     F .text	00000004 TEE_BigIntInitFMM
00003338 g     F .text	00000018 utee_asymm_operate
0000113c g     F .text	00000014 TEE_CloseObject
00002e60 g     F .text	0000018c __utee_entry
00007c88 g       .text	00000000 __text_end
000041ec g     F .text	0000007c TEE_BigIntRelativePrime
000059d6 g     F .text	00000064 mbedtls_mpi_mod_mpi
000071a4 g     F .text	0000009c bpool
00000de0 g     F .text	0000001c TEE_GetCancellationFlag
000061a8 g     F .text	00000112 mbedtls_mpi_gcd
00000ed4 g     F .text	00000028 TEE_SetTAPersistentTime
00007c0c g     F .text	00000010 memset
00000e98 g     F .text	0000003c TEE_GetTAPersistentTime
00000bb0 g     F .text	00000002 dhex_dump
000013d8 g     F .text	00000098 TEE_CreatePersistentObject
00000e18 g     F .text	0000001c TEE_MaskCancellation
000026c4 g     F .text	00000046 TEE_AEUpdateAAD
00003424 g     F .text	00000014 utee_storage_obj_read
00001650 g     F .text	00000038 TEE_TruncateObjectData
00003274 g     F .text	00000014 utee_cryp_obj_populate
00000fdc g     F .text	00000020 TEE_GetObjectInfo1
0000a004 g     O .data	00000100 Publickey2048_N
00000a44 g     F .text	0000001c trace_set_level
000031fc g     F .text	00000014 utee_cryp_obj_get_info
000010b8 g     F .text	00000084 TEE_GetObjectValueAttribute
00001fc4 g     F .text	00000090 TEE_SetOperationKey
000033c0 g     F .text	00000014 utee_storage_alloc_enum
000033e8 g     F .text	00000014 utee_storage_reset_enum
0000344c g     F .text	00000014 utee_storage_obj_trunc
0000a2c0 g     O .bss	00000004 OperationHandle
00003bd0 g     F .text	0000005c TEE_BigIntConvertToS32
00003ecc g     F .text	0000001c TEE_BigIntSub
000030ac g     F .text	00000014 utee_get_cancellation_flag
00003178 g     F .text	00000014 utee_hash_init
000079c4 g     F .text	00000004 tahead_get_trace_level
00000c80 g     F .text	0000005c __utee_from_param
00001688 g     F .text	0000007c TEE_SeekObjectData
00000cdc g     F .text	0000003c __utee_to_param
00005d34 g     F .text	00000024 mbedtls_mpi_montred
000073a0 g     F .text	000002e4 memalign
000023c8 g     F .text	00000118 TEE_CipherDoFinal
00003b98 g     F .text	00000038 TEE_BigIntConvertFromS32
0000539e g     F .text	00000030 mbedtls_mpi_add_int
00003210 g     F .text	00000014 utee_cryp_obj_restrict_usage
00007758 g     F .text	000000dc malloc_buffer_is_within_alloced
00003288 g     F .text	00000014 utee_cryp_obj_copy
000043f0 g     F .text	00000002 TEE_BigIntInitFMMContext
0000329c g     F .text	00000014 utee_cryp_derive_key
00003320 g     F .text	00000018 utee_authenc_dec_final
00001610 g     F .text	00000040 TEE_WriteObjectData
0000153c g     F .text	00000014 TEE_ResetPersistentObjectEnumerator
00003fe8 g     F .text	00000006 TEE_BigIntSquare
00000020 g     F .text	00000004 TA_CreateEntryPoint
00005c48 g     F .text	00000028 mbedtls_mpi_montg_init
00000a2a g     F .text	0000001a snprintk
00003e8e g     F .text	00000022 TEE_BigIntGetBitCount
00004124 g     F .text	0000001c TEE_BigIntMulMod
00006508 g     F .text	000002fe mbedtls_mpi_inv_mod
00002ce8 g     F .text	000000ba TEE_DeriveKey
0000a2c8 g     O .bss	00000020 ta_params
00005610 g     F .text	00000398 mbedtls_mpi_div_mpi
00004efc g     F .text	0000000c mbedtls_mpi_size
00006da0 g     F .text	00000134 bget
00001150 g     F .text	00000030 TEE_AllocateTransientObject
00004e42 g     F .text	00000052 mbedtls_mpi_set_bit
00004aac g     F .text	00000012 mbedtls_mpi_init_static
00000f60 g     F .text	00000004 TEE_Free
00006806 g     F .text	0000005c mbedtls_mpi_is_prime
00000f70 g     F .text	00000006 TEE_CacheInvalidate
000031b8 g     F .text	00000014 utee_cipher_init
000079b4 g     F .text	00000010 _assert_break
000040ec g     F .text	0000001c TEE_BigIntAddMod
000033d4 g     F .text	00000014 utee_storage_free_enum
000032dc g     F .text	00000014 utee_authenc_update_aad
00001882 g     F .text	00000626 TEE_AllocateOperation
00002da2 g     F .text	00000012 TEE_GenerateRandom
00000e5c g     F .text	00000004 TEE_MemCompare
00000374 g     F .text	000006a8 __vsnprintf
00001528 g     F .text	00000014 TEE_FreePersistentObjectEnumerator
00002fec g     F .text	00000014 utee_panic
00000d18 g     F .text	00000044 TEE_OpenTASession
00000be4 g     F .text	00000014 trace_ext_puts
00000bf8 g     F .text	00000006 trace_ext_get_thread_id
00001494 g     F .text	00000016 TEE_CloseAndDeletePersistentObject
00004abe g     F .text	0000004a mbedtls_mpi_free
00000f64 g     F .text	00000006 TEE_CacheClean
00003068 g     F .text	00000018 utee_open_ta_session
00007c1c g     F .text	0000002c buf_compare_ct
00004d60 g     F .text	00000088 mbedtls_mpi_safe_cond_swap
00001294 g     F .text	00000068 TEE_CopyObjectAttributes1
000031a0 g     F .text	00000018 utee_hash_final
00007a16 g     F .text	00000010 strlen
00004268 g     F .text	00000154 TEE_BigIntComputeExtendedGcd
000079f6 g     F .text	00000002 __aeabi_unwind_cpp_pr1
00003368 g     F .text	00000018 utee_storage_obj_open
00003094 g     F .text	00000018 utee_invoke_ta_command
000030fc g     F .text	00000014 utee_wait
00000e64 g     F .text	00000016 TEE_GetSystemTime
00000000 g     O .ta_head	00000020 ta_head
00006f30 g     F .text	000001f8 brel
00005290 g     F .text	0000007a mbedtls_mpi_sub_abs
00003110 g     F .text	00000014 utee_get_time
000062ba g     F .text	00000034 mbedtls_mpi_fill_random
00000e3e g     F .text	0000000e TEE_SetInstanceData
000030d4 g     F .text	00000014 utee_unmask_cancellation
00000bb4 g     F .text	00000018 __aeabi_ldivmod
000030c0 g     F .text	00000014 utee_check_access_rights
00005ae2 g     F .text	00000116 mbedtls_mpi_write_string
0000157c g     F .text	00000054 TEE_GetNextPersistentObject
00003474 g     F .text	00000014 utee_cryp_obj_generate_key
00000d5c g     F .text	00000014 TEE_CloseTASession
00002c3c g     F .text	000000ac TEE_AsymmetricVerifyDigest
00014338 g       .bss	00000000 __gprof_buf_start
00007310 g     F .text	00000010 free
00007240 g     F .text	00000064 bstats
00002584 g     F .text	00000068 TEE_MACComputeFinal
0000c2f0 g     O .bss	00000004 mbedtls_mpi_mempool



Disassembly of section .text:

00000020 <TA_CreateEntryPoint>:
TA_CreateEntryPoint():
/home/st/Desktop/Raspbian-optee/raspbian-optee/raspbian-tee1/raspbian-tee/optee_examples/secure_lab_publisher/ta/Lab_TA.c:89
      20:	2000      	movs	r0, #0
      22:	4770      	bx	lr

00000024 <TA_DestroyEntryPoint>:
TA_DestroyEntryPoint():
/home/st/Desktop/Raspbian-optee/raspbian-optee/raspbian-tee1/raspbian-tee/optee_examples/secure_lab_publisher/ta/Lab_TA.c:98
      24:	4770      	bx	lr

00000026 <TA_OpenSessionEntryPoint>:
TA_OpenSessionEntryPoint():
/home/st/Desktop/Raspbian-optee/raspbian-optee/raspbian-tee1/raspbian-tee/optee_examples/secure_lab_publisher/ta/Lab_TA.c:116
      26:	2000      	movs	r0, #0
      28:	4770      	bx	lr

0000002a <TA_CloseSessionEntryPoint>:
TA_CloseSessionEntryPoint():
/home/st/Desktop/Raspbian-optee/raspbian-optee/raspbian-tee1/raspbian-tee/optee_examples/secure_lab_publisher/ta/Lab_TA.c:126
      2a:	4770      	bx	lr

0000002c <TA_InvokeCommandEntryPoint>:
TA_InvokeCommandEntryPoint():
/home/st/Desktop/Raspbian-optee/raspbian-optee/raspbian-tee1/raspbian-tee/optee_examples/secure_lab_publisher/ta/Lab_TA.c:306
      2c:	e92d 4ff0 	stmdb	sp!, {r4, r5, r6, r7, r8, r9, sl, fp, lr}
/home/st/Desktop/Raspbian-optee/raspbian-optee/raspbian-tee1/raspbian-tee/optee_examples/secure_lab_publisher/ta/Lab_TA.c:309
      30:	2905      	cmp	r1, #5
/home/st/Desktop/Raspbian-optee/raspbian-optee/raspbian-tee1/raspbian-tee/optee_examples/secure_lab_publisher/ta/Lab_TA.c:306
      32:	4617      	mov	r7, r2
      34:	b097      	sub	sp, #92	; 0x5c
      36:	461d      	mov	r5, r3
/home/st/Desktop/Raspbian-optee/raspbian-optee/raspbian-tee1/raspbian-tee/optee_examples/secure_lab_publisher/ta/Lab_TA.c:309
      38:	d003      	beq.n	42 <TA_InvokeCommandEntryPoint+0x16>
      3a:	2906      	cmp	r1, #6
      3c:	d052      	beq.n	e4 <TA_InvokeCommandEntryPoint+0xb8>
rsa_encrypt():
/home/st/Desktop/Raspbian-optee/raspbian-optee/raspbian-tee1/raspbian-tee/optee_examples/secure_lab_publisher/ta/Lab_TA.c:248
      3e:	4cb3      	ldr	r4, [pc, #716]	; (30c <TA_InvokeCommandEntryPoint+0x2e0>)
TA_InvokeCommandEntryPoint():
/home/st/Desktop/Raspbian-optee/raspbian-optee/raspbian-tee1/raspbian-tee/optee_examples/secure_lab_publisher/ta/Lab_TA.c:313
      40:	e043      	b.n	ca <TA_InvokeCommandEntryPoint+0x9e>
dht11_read_data():
/home/st/Desktop/Raspbian-optee/raspbian-optee/raspbian-tee1/raspbian-tee/optee_examples/secure_lab_publisher/ta/Lab_TA.c:200
      42:	2a22      	cmp	r2, #34	; 0x22
      44:	d1fb      	bne.n	3e <TA_InvokeCommandEntryPoint+0x12>
/home/st/Desktop/Raspbian-optee/raspbian-optee/raspbian-tee1/raspbian-tee/optee_examples/secure_lab_publisher/ta/Lab_TA.c:204
      46:	4eb6      	ldr	r6, [pc, #728]	; (320 <TA_InvokeCommandEntryPoint+0x2f4>)
      48:	ac0a      	add	r4, sp, #40	; 0x28
/home/st/Desktop/Raspbian-optee/raspbian-optee/raspbian-tee1/raspbian-tee/optee_examples/secure_lab_publisher/ta/Lab_TA.c:211
      4a:	f10d 0838 	add.w	r8, sp, #56	; 0x38
/home/st/Desktop/Raspbian-optee/raspbian-optee/raspbian-tee1/raspbian-tee/optee_examples/secure_lab_publisher/ta/Lab_TA.c:204
      4e:	447e      	add	r6, pc
      50:	e896 000f 	ldmia.w	r6, {r0, r1, r2, r3}
      54:	e884 000f 	stmia.w	r4, {r0, r1, r2, r3}
/home/st/Desktop/Raspbian-optee/raspbian-optee/raspbian-tee1/raspbian-tee/optee_examples/secure_lab_publisher/ta/Lab_TA.c:205
      58:	2200      	movs	r2, #0
/home/st/Desktop/Raspbian-optee/raspbian-optee/raspbian-tee1/raspbian-tee/optee_examples/secure_lab_publisher/ta/Lab_TA.c:211
      5a:	ab08      	add	r3, sp, #32
      5c:	4620      	mov	r0, r4
      5e:	9301      	str	r3, [sp, #4]
      60:	f04f 31ff 	mov.w	r1, #4294967295	; 0xffffffff
      64:	ab07      	add	r3, sp, #28
      66:	9300      	str	r3, [sp, #0]
      68:	4643      	mov	r3, r8
/home/st/Desktop/Raspbian-optee/raspbian-optee/raspbian-tee1/raspbian-tee/optee_examples/secure_lab_publisher/ta/Lab_TA.c:205
      6a:	9207      	str	r2, [sp, #28]
/home/st/Desktop/Raspbian-optee/raspbian-optee/raspbian-tee1/raspbian-tee/optee_examples/secure_lab_publisher/ta/Lab_TA.c:206
      6c:	9208      	str	r2, [sp, #32]
/home/st/Desktop/Raspbian-optee/raspbian-optee/raspbian-tee1/raspbian-tee/optee_examples/secure_lab_publisher/ta/Lab_TA.c:211
      6e:	f000 fe53 	bl	d18 <TEE_OpenTASession>
/home/st/Desktop/Raspbian-optee/raspbian-optee/raspbian-tee1/raspbian-tee/optee_examples/secure_lab_publisher/ta/Lab_TA.c:213
      72:	4604      	mov	r4, r0
      74:	b168      	cbz	r0, 92 <TA_InvokeCommandEntryPoint+0x66>
/home/st/Desktop/Raspbian-optee/raspbian-optee/raspbian-tee1/raspbian-tee/optee_examples/secure_lab_publisher/ta/Lab_TA.c:214
      76:	9b08      	ldr	r3, [sp, #32]
      78:	21d6      	movs	r1, #214	; 0xd6
      7a:	9302      	str	r3, [sp, #8]
      7c:	4ba9      	ldr	r3, [pc, #676]	; (324 <TA_InvokeCommandEntryPoint+0x2f8>)
      7e:	9001      	str	r0, [sp, #4]
      80:	f106 0010 	add.w	r0, r6, #16
      84:	447b      	add	r3, pc
      86:	9300      	str	r3, [sp, #0]
      88:	2301      	movs	r3, #1
      8a:	461a      	mov	r2, r3
rsa_encrypt():
/home/st/Desktop/Raspbian-optee/raspbian-optee/raspbian-tee1/raspbian-tee/optee_examples/secure_lab_publisher/ta/Lab_TA.c:268
      8c:	f000 fcf2 	bl	a74 <trace_printf>
/home/st/Desktop/Raspbian-optee/raspbian-optee/raspbian-tee1/raspbian-tee/optee_examples/secure_lab_publisher/ta/Lab_TA.c:269
      90:	e01b      	b.n	ca <TA_InvokeCommandEntryPoint+0x9e>
dht11_read_data():
/home/st/Desktop/Raspbian-optee/raspbian-optee/raspbian-tee1/raspbian-tee/optee_examples/secure_lab_publisher/ta/Lab_TA.c:222
      92:	9001      	str	r0, [sp, #4]
      94:	463b      	mov	r3, r7
      96:	9807      	ldr	r0, [sp, #28]
      98:	2203      	movs	r2, #3
      9a:	f04f 31ff 	mov.w	r1, #4294967295	; 0xffffffff
      9e:	f8cd 8000 	str.w	r8, [sp]
      a2:	f000 fe65 	bl	d70 <TEE_InvokeTACommand>
/home/st/Desktop/Raspbian-optee/raspbian-optee/raspbian-tee1/raspbian-tee/optee_examples/secure_lab_publisher/ta/Lab_TA.c:224
      a6:	4604      	mov	r4, r0
      a8:	b198      	cbz	r0, d2 <TA_InvokeCommandEntryPoint+0xa6>
/home/st/Desktop/Raspbian-optee/raspbian-optee/raspbian-tee1/raspbian-tee/optee_examples/secure_lab_publisher/ta/Lab_TA.c:225
      aa:	9b08      	ldr	r3, [sp, #32]
      ac:	21e1      	movs	r1, #225	; 0xe1
      ae:	9302      	str	r3, [sp, #8]
      b0:	4b9d      	ldr	r3, [pc, #628]	; (328 <TA_InvokeCommandEntryPoint+0x2fc>)
      b2:	9001      	str	r0, [sp, #4]
      b4:	f106 0010 	add.w	r0, r6, #16
      b8:	447b      	add	r3, pc
      ba:	9300      	str	r3, [sp, #0]
      bc:	2301      	movs	r3, #1
      be:	461a      	mov	r2, r3
      c0:	f000 fcd8 	bl	a74 <trace_printf>
/home/st/Desktop/Raspbian-optee/raspbian-optee/raspbian-tee1/raspbian-tee/optee_examples/secure_lab_publisher/ta/Lab_TA.c:235
      c4:	9807      	ldr	r0, [sp, #28]
      c6:	f000 fe49 	bl	d5c <TEE_CloseTASession>
TA_InvokeCommandEntryPoint():
/home/st/Desktop/Raspbian-optee/raspbian-optee/raspbian-tee1/raspbian-tee/optee_examples/secure_lab_publisher/ta/Lab_TA.c:317
      ca:	4620      	mov	r0, r4
      cc:	b017      	add	sp, #92	; 0x5c
      ce:	e8bd 8ff0 	ldmia.w	sp!, {r4, r5, r6, r7, r8, r9, sl, fp, pc}
dht11_read_data():
/home/st/Desktop/Raspbian-optee/raspbian-optee/raspbian-tee1/raspbian-tee/optee_examples/secure_lab_publisher/ta/Lab_TA.c:230
      d2:	9b0e      	ldr	r3, [sp, #56]	; 0x38
      d4:	602b      	str	r3, [r5, #0]
/home/st/Desktop/Raspbian-optee/raspbian-optee/raspbian-tee1/raspbian-tee/optee_examples/secure_lab_publisher/ta/Lab_TA.c:231
      d6:	9b0f      	ldr	r3, [sp, #60]	; 0x3c
      d8:	606b      	str	r3, [r5, #4]
/home/st/Desktop/Raspbian-optee/raspbian-optee/raspbian-tee1/raspbian-tee/optee_examples/secure_lab_publisher/ta/Lab_TA.c:232
      da:	9b10      	ldr	r3, [sp, #64]	; 0x40
      dc:	60ab      	str	r3, [r5, #8]
/home/st/Desktop/Raspbian-optee/raspbian-optee/raspbian-tee1/raspbian-tee/optee_examples/secure_lab_publisher/ta/Lab_TA.c:233
      de:	9b11      	ldr	r3, [sp, #68]	; 0x44
      e0:	60eb      	str	r3, [r5, #12]
      e2:	e7ef      	b.n	c4 <TA_InvokeCommandEntryPoint+0x98>
rsa_encrypt():
/home/st/Desktop/Raspbian-optee/raspbian-optee/raspbian-tee1/raspbian-tee/optee_examples/secure_lab_publisher/ta/Lab_TA.c:247
      e4:	2a06      	cmp	r2, #6
      e6:	d1aa      	bne.n	3e <TA_InvokeCommandEntryPoint+0x12>
/home/st/Desktop/Raspbian-optee/raspbian-optee/raspbian-tee1/raspbian-tee/optee_examples/secure_lab_publisher/ta/Lab_TA.c:258
      e8:	4e90      	ldr	r6, [pc, #576]	; (32c <TA_InvokeCommandEntryPoint+0x300>)
      ea:	ac0a      	add	r4, sp, #40	; 0x28
/home/st/Desktop/Raspbian-optee/raspbian-optee/raspbian-tee1/raspbian-tee/optee_examples/secure_lab_publisher/ta/Lab_TA.c:255
      ec:	681f      	ldr	r7, [r3, #0]
/home/st/Desktop/Raspbian-optee/raspbian-optee/raspbian-tee1/raspbian-tee/optee_examples/secure_lab_publisher/ta/Lab_TA.c:265
      ee:	f10d 0838 	add.w	r8, sp, #56	; 0x38
/home/st/Desktop/Raspbian-optee/raspbian-optee/raspbian-tee1/raspbian-tee/optee_examples/secure_lab_publisher/ta/Lab_TA.c:258
      f2:	447e      	add	r6, pc
/home/st/Desktop/Raspbian-optee/raspbian-optee/raspbian-tee1/raspbian-tee/optee_examples/secure_lab_publisher/ta/Lab_TA.c:256
      f4:	685b      	ldr	r3, [r3, #4]
      f6:	9305      	str	r3, [sp, #20]
/home/st/Desktop/Raspbian-optee/raspbian-optee/raspbian-tee1/raspbian-tee/optee_examples/secure_lab_publisher/ta/Lab_TA.c:258
      f8:	f106 0520 	add.w	r5, r6, #32
      fc:	e896 000f 	ldmia.w	r6, {r0, r1, r2, r3}
     100:	e884 000f 	stmia.w	r4, {r0, r1, r2, r3}
/home/st/Desktop/Raspbian-optee/raspbian-optee/raspbian-tee1/raspbian-tee/optee_examples/secure_lab_publisher/ta/Lab_TA.c:259
     104:	2200      	movs	r2, #0
/home/st/Desktop/Raspbian-optee/raspbian-optee/raspbian-tee1/raspbian-tee/optee_examples/secure_lab_publisher/ta/Lab_TA.c:265
     106:	ab07      	add	r3, sp, #28
     108:	4620      	mov	r0, r4
     10a:	9301      	str	r3, [sp, #4]
     10c:	f04f 31ff 	mov.w	r1, #4294967295	; 0xffffffff
     110:	ab06      	add	r3, sp, #24
     112:	9300      	str	r3, [sp, #0]
     114:	4643      	mov	r3, r8
/home/st/Desktop/Raspbian-optee/raspbian-optee/raspbian-tee1/raspbian-tee/optee_examples/secure_lab_publisher/ta/Lab_TA.c:260
     116:	e9cd 2206 	strd	r2, r2, [sp, #24]
/home/st/Desktop/Raspbian-optee/raspbian-optee/raspbian-tee1/raspbian-tee/optee_examples/secure_lab_publisher/ta/Lab_TA.c:265
     11a:	f000 fdfd 	bl	d18 <TEE_OpenTASession>
/home/st/Desktop/Raspbian-optee/raspbian-optee/raspbian-tee1/raspbian-tee/optee_examples/secure_lab_publisher/ta/Lab_TA.c:267
     11e:	4604      	mov	r4, r0
     120:	b158      	cbz	r0, 13a <TA_InvokeCommandEntryPoint+0x10e>
/home/st/Desktop/Raspbian-optee/raspbian-optee/raspbian-tee1/raspbian-tee/optee_examples/secure_lab_publisher/ta/Lab_TA.c:268
     122:	9b07      	ldr	r3, [sp, #28]
     124:	f44f 7186 	mov.w	r1, #268	; 0x10c
     128:	9302      	str	r3, [sp, #8]
     12a:	4b81      	ldr	r3, [pc, #516]	; (330 <TA_InvokeCommandEntryPoint+0x304>)
     12c:	9001      	str	r0, [sp, #4]
     12e:	4628      	mov	r0, r5
     130:	447b      	add	r3, pc
     132:	9300      	str	r3, [sp, #0]
     134:	2301      	movs	r3, #1
     136:	461a      	mov	r2, r3
     138:	e7a8      	b.n	8c <TA_InvokeCommandEntryPoint+0x60>
/home/st/Desktop/Raspbian-optee/raspbian-optee/raspbian-tee1/raspbian-tee/optee_examples/secure_lab_publisher/ta/Lab_TA.c:276
     13a:	9001      	str	r0, [sp, #4]
     13c:	2322      	movs	r3, #34	; 0x22
     13e:	9806      	ldr	r0, [sp, #24]
     140:	2203      	movs	r2, #3
     142:	f04f 31ff 	mov.w	r1, #4294967295	; 0xffffffff
     146:	f8cd 8000 	str.w	r8, [sp]
     14a:	f000 fe11 	bl	d70 <TEE_InvokeTACommand>
/home/st/Desktop/Raspbian-optee/raspbian-optee/raspbian-tee1/raspbian-tee/optee_examples/secure_lab_publisher/ta/Lab_TA.c:278
     14e:	4604      	mov	r4, r0
     150:	b170      	cbz	r0, 170 <TA_InvokeCommandEntryPoint+0x144>
/home/st/Desktop/Raspbian-optee/raspbian-optee/raspbian-tee1/raspbian-tee/optee_examples/secure_lab_publisher/ta/Lab_TA.c:279
     152:	9b07      	ldr	r3, [sp, #28]
     154:	f240 1117 	movw	r1, #279	; 0x117
     158:	9302      	str	r3, [sp, #8]
     15a:	4b76      	ldr	r3, [pc, #472]	; (334 <TA_InvokeCommandEntryPoint+0x308>)
     15c:	9001      	str	r0, [sp, #4]
     15e:	4628      	mov	r0, r5
     160:	447b      	add	r3, pc
     162:	9300      	str	r3, [sp, #0]
     164:	2301      	movs	r3, #1
     166:	461a      	mov	r2, r3
     168:	f000 fc84 	bl	a74 <trace_printf>
/home/st/Desktop/Raspbian-optee/raspbian-optee/raspbian-tee1/raspbian-tee/optee_examples/secure_lab_publisher/ta/Lab_TA.c:280
     16c:	9806      	ldr	r0, [sp, #24]
     16e:	e7aa      	b.n	c6 <TA_InvokeCommandEntryPoint+0x9a>
/home/st/Desktop/Raspbian-optee/raspbian-optee/raspbian-tee1/raspbian-tee/optee_examples/secure_lab_publisher/ta/Lab_TA.c:287
     170:	9806      	ldr	r0, [sp, #24]
/home/st/Desktop/Raspbian-optee/raspbian-optee/raspbian-tee1/raspbian-tee/optee_examples/secure_lab_publisher/ta/Lab_TA.c:290
     172:	f10d 0820 	add.w	r8, sp, #32
/home/st/Desktop/Raspbian-optee/raspbian-optee/raspbian-tee1/raspbian-tee/optee_examples/secure_lab_publisher/ta/Lab_TA.c:287
     176:	f000 fdf1 	bl	d5c <TEE_CloseTASession>
/home/st/Desktop/Raspbian-optee/raspbian-optee/raspbian-tee1/raspbian-tee/optee_examples/secure_lab_publisher/ta/Lab_TA.c:290
     17a:	4a6f      	ldr	r2, [pc, #444]	; (338 <TA_InvokeCommandEntryPoint+0x30c>)
     17c:	9b11      	ldr	r3, [sp, #68]	; 0x44
     17e:	2107      	movs	r1, #7
SetRsaPublicKey():
/home/st/Desktop/Raspbian-optee/raspbian-optee/raspbian-tee1/raspbian-tee/optee_examples/secure_lab_publisher/ta/Lab_TA.c:133
     180:	f8df a1b8 	ldr.w	sl, [pc, #440]	; 33c <TA_InvokeCommandEntryPoint+0x310>
rsa_encrypt():
/home/st/Desktop/Raspbian-optee/raspbian-optee/raspbian-tee1/raspbian-tee/optee_examples/secure_lab_publisher/ta/Lab_TA.c:290
     184:	447a      	add	r2, pc
     186:	9300      	str	r3, [sp, #0]
     188:	4640      	mov	r0, r8
     18a:	9b10      	ldr	r3, [sp, #64]	; 0x40
SetRsaPublicKey():
/home/st/Desktop/Raspbian-optee/raspbian-optee/raspbian-tee1/raspbian-tee/optee_examples/secure_lab_publisher/ta/Lab_TA.c:133
     18c:	44fa      	add	sl, pc
rsa_encrypt():
/home/st/Desktop/Raspbian-optee/raspbian-optee/raspbian-tee1/raspbian-tee/optee_examples/secure_lab_publisher/ta/Lab_TA.c:288
     18e:	9406      	str	r4, [sp, #24]
/home/st/Desktop/Raspbian-optee/raspbian-optee/raspbian-tee1/raspbian-tee/optee_examples/secure_lab_publisher/ta/Lab_TA.c:290
     190:	f007 fc1a 	bl	79c8 <snprintf>
/home/st/Desktop/Raspbian-optee/raspbian-optee/raspbian-tee1/raspbian-tee/optee_examples/secure_lab_publisher/ta/Lab_TA.c:291
     194:	4b6a      	ldr	r3, [pc, #424]	; (340 <TA_InvokeCommandEntryPoint+0x314>)
     196:	4628      	mov	r0, r5
SetRsaPublicKey():
/home/st/Desktop/Raspbian-optee/raspbian-optee/raspbian-tee1/raspbian-tee/optee_examples/secure_lab_publisher/ta/Lab_TA.c:133
     198:	46d3      	mov	fp, sl
     19a:	4d6a      	ldr	r5, [pc, #424]	; (344 <TA_InvokeCommandEntryPoint+0x318>)
rsa_encrypt():
/home/st/Desktop/Raspbian-optee/raspbian-optee/raspbian-tee1/raspbian-tee/optee_examples/secure_lab_publisher/ta/Lab_TA.c:291
     19c:	447b      	add	r3, pc
     19e:	9300      	str	r3, [sp, #0]
     1a0:	2301      	movs	r3, #1
SetRsaPublicKey():
/home/st/Desktop/Raspbian-optee/raspbian-optee/raspbian-tee1/raspbian-tee/optee_examples/secure_lab_publisher/ta/Lab_TA.c:133
     1a2:	447d      	add	r5, pc
rsa_encrypt():
/home/st/Desktop/Raspbian-optee/raspbian-optee/raspbian-tee1/raspbian-tee/optee_examples/secure_lab_publisher/ta/Lab_TA.c:291
     1a4:	461a      	mov	r2, r3
     1a6:	f240 1123 	movw	r1, #291	; 0x123
     1aa:	f8cd 8004 	str.w	r8, [sp, #4]
SetRsaPublicKey():
/home/st/Desktop/Raspbian-optee/raspbian-optee/raspbian-tee1/raspbian-tee/optee_examples/secure_lab_publisher/ta/Lab_TA.c:133
     1ae:	46a9      	mov	r9, r5
rsa_encrypt():
/home/st/Desktop/Raspbian-optee/raspbian-optee/raspbian-tee1/raspbian-tee/optee_examples/secure_lab_publisher/ta/Lab_TA.c:291
     1b0:	f000 fc60 	bl	a74 <trace_printf>
SetRsaPublicKey():
/home/st/Desktop/Raspbian-optee/raspbian-optee/raspbian-tee1/raspbian-tee/optee_examples/secure_lab_publisher/ta/Lab_TA.c:133
     1b4:	f85b 3b04 	ldr.w	r3, [fp], #4
/home/st/Desktop/Raspbian-optee/raspbian-optee/raspbian-tee1/raspbian-tee/optee_examples/secure_lab_publisher/ta/Lab_TA.c:135
     1b8:	2218      	movs	r2, #24
     1ba:	4621      	mov	r1, r4
/home/st/Desktop/Raspbian-optee/raspbian-optee/raspbian-tee1/raspbian-tee/optee_examples/secure_lab_publisher/ta/Lab_TA.c:133
     1bc:	00db      	lsls	r3, r3, #3
     1be:	f849 3b04 	str.w	r3, [r9], #4
/home/st/Desktop/Raspbian-optee/raspbian-optee/raspbian-tee1/raspbian-tee/optee_examples/secure_lab_publisher/ta/Lab_TA.c:135
     1c2:	4648      	mov	r0, r9
     1c4:	f000 fe4c 	bl	e60 <TEE_MemFill>
/home/st/Desktop/Raspbian-optee/raspbian-optee/raspbian-tee1/raspbian-tee/optee_examples/secure_lab_publisher/ta/Lab_TA.c:137
     1c8:	4b51      	ldr	r3, [pc, #324]	; (310 <TA_InvokeCommandEntryPoint+0x2e4>)
     1ca:	606b      	str	r3, [r5, #4]
/home/st/Desktop/Raspbian-optee/raspbian-optee/raspbian-tee1/raspbian-tee/optee_examples/secure_lab_publisher/ta/Lab_TA.c:145
     1cc:	f105 021c 	add.w	r2, r5, #28
/home/st/Desktop/Raspbian-optee/raspbian-optee/raspbian-tee1/raspbian-tee/optee_examples/secure_lab_publisher/ta/Lab_TA.c:139
     1d0:	f8da 3000 	ldr.w	r3, [sl]
     1d4:	60eb      	str	r3, [r5, #12]
/home/st/Desktop/Raspbian-optee/raspbian-optee/raspbian-tee1/raspbian-tee/optee_examples/secure_lab_publisher/ta/Lab_TA.c:141
     1d6:	4b4f      	ldr	r3, [pc, #316]	; (314 <TA_InvokeCommandEntryPoint+0x2e8>)
     1d8:	612b      	str	r3, [r5, #16]
/home/st/Desktop/Raspbian-optee/raspbian-optee/raspbian-tee1/raspbian-tee/optee_examples/secure_lab_publisher/ta/Lab_TA.c:142
     1da:	f50a 7382 	add.w	r3, sl, #260	; 0x104
     1de:	616b      	str	r3, [r5, #20]
/home/st/Desktop/Raspbian-optee/raspbian-optee/raspbian-tee1/raspbian-tee/optee_examples/secure_lab_publisher/ta/Lab_TA.c:143
     1e0:	f8da 3204 	ldr.w	r3, [sl, #516]	; 0x204
/home/st/Desktop/Raspbian-optee/raspbian-optee/raspbian-tee1/raspbian-tee/optee_examples/secure_lab_publisher/ta/Lab_TA.c:145
     1e4:	6829      	ldr	r1, [r5, #0]
     1e6:	484c      	ldr	r0, [pc, #304]	; (318 <TA_InvokeCommandEntryPoint+0x2ec>)
/home/st/Desktop/Raspbian-optee/raspbian-optee/raspbian-tee1/raspbian-tee/optee_examples/secure_lab_publisher/ta/Lab_TA.c:138
     1e8:	f8c5 b008 	str.w	fp, [r5, #8]
/home/st/Desktop/Raspbian-optee/raspbian-optee/raspbian-tee1/raspbian-tee/optee_examples/secure_lab_publisher/ta/Lab_TA.c:143
     1ec:	61ab      	str	r3, [r5, #24]
/home/st/Desktop/Raspbian-optee/raspbian-optee/raspbian-tee1/raspbian-tee/optee_examples/secure_lab_publisher/ta/Lab_TA.c:145
     1ee:	f000 ffaf 	bl	1150 <TEE_AllocateTransientObject>
/home/st/Desktop/Raspbian-optee/raspbian-optee/raspbian-tee1/raspbian-tee/optee_examples/secure_lab_publisher/ta/Lab_TA.c:146
     1f2:	b310      	cbz	r0, 23a <TA_InvokeCommandEntryPoint+0x20e>
/home/st/Desktop/Raspbian-optee/raspbian-optee/raspbian-tee1/raspbian-tee/optee_examples/secure_lab_publisher/ta/Lab_TA.c:147
     1f4:	4b54      	ldr	r3, [pc, #336]	; (348 <TA_InvokeCommandEntryPoint+0x31c>)
     1f6:	2193      	movs	r1, #147	; 0x93
     1f8:	9001      	str	r0, [sp, #4]
     1fa:	f106 002c 	add.w	r0, r6, #44	; 0x2c
     1fe:	447b      	add	r3, pc
     200:	9300      	str	r3, [sp, #0]
     202:	2301      	movs	r3, #1
     204:	461a      	mov	r2, r3
     206:	f000 fc35 	bl	a74 <trace_printf>
RsaEncOper():
/home/st/Desktop/Raspbian-optee/raspbian-optee/raspbian-tee1/raspbian-tee/optee_examples/secure_lab_publisher/ta/Lab_TA.c:166
     20a:	4d50      	ldr	r5, [pc, #320]	; (34c <TA_InvokeCommandEntryPoint+0x320>)
     20c:	2200      	movs	r2, #0
     20e:	4943      	ldr	r1, [pc, #268]	; (31c <TA_InvokeCommandEntryPoint+0x2f0>)
     210:	447d      	add	r5, pc
     212:	4628      	mov	r0, r5
     214:	f850 3b20 	ldr.w	r3, [r0], #32
     218:	f001 fb33 	bl	1882 <TEE_AllocateOperation>
/home/st/Desktop/Raspbian-optee/raspbian-optee/raspbian-tee1/raspbian-tee/optee_examples/secure_lab_publisher/ta/Lab_TA.c:167
     21c:	4681      	mov	r9, r0
     21e:	b318      	cbz	r0, 268 <TA_InvokeCommandEntryPoint+0x23c>
/home/st/Desktop/Raspbian-optee/raspbian-optee/raspbian-tee1/raspbian-tee/optee_examples/secure_lab_publisher/ta/Lab_TA.c:168
     220:	9001      	str	r0, [sp, #4]
     222:	21a8      	movs	r1, #168	; 0xa8
     224:	4b4a      	ldr	r3, [pc, #296]	; (350 <TA_InvokeCommandEntryPoint+0x324>)
     226:	484b      	ldr	r0, [pc, #300]	; (354 <TA_InvokeCommandEntryPoint+0x328>)
     228:	447b      	add	r3, pc
     22a:	9300      	str	r3, [sp, #0]
     22c:	4478      	add	r0, pc
     22e:	2301      	movs	r3, #1
     230:	461a      	mov	r2, r3
     232:	303c      	adds	r0, #60	; 0x3c
     234:	f000 fc1e 	bl	a74 <trace_printf>
/home/st/Desktop/Raspbian-optee/raspbian-optee/raspbian-tee1/raspbian-tee/optee_examples/secure_lab_publisher/ta/Lab_TA.c:169
     238:	e747      	b.n	ca <TA_InvokeCommandEntryPoint+0x9e>
SetRsaPublicKey():
/home/st/Desktop/Raspbian-optee/raspbian-optee/raspbian-tee1/raspbian-tee/optee_examples/secure_lab_publisher/ta/Lab_TA.c:151
     23a:	69e8      	ldr	r0, [r5, #28]
     23c:	2202      	movs	r2, #2
     23e:	4649      	mov	r1, r9
     240:	f000 ffce 	bl	11e0 <TEE_PopulateTransientObject>
/home/st/Desktop/Raspbian-optee/raspbian-optee/raspbian-tee1/raspbian-tee/optee_examples/secure_lab_publisher/ta/Lab_TA.c:152
     244:	2800      	cmp	r0, #0
     246:	d0e0      	beq.n	20a <TA_InvokeCommandEntryPoint+0x1de>
/home/st/Desktop/Raspbian-optee/raspbian-optee/raspbian-tee1/raspbian-tee/optee_examples/secure_lab_publisher/ta/Lab_TA.c:153
     248:	4b43      	ldr	r3, [pc, #268]	; (358 <TA_InvokeCommandEntryPoint+0x32c>)
     24a:	2199      	movs	r1, #153	; 0x99
     24c:	9001      	str	r0, [sp, #4]
     24e:	f106 002c 	add.w	r0, r6, #44	; 0x2c
     252:	447b      	add	r3, pc
     254:	9300      	str	r3, [sp, #0]
     256:	2301      	movs	r3, #1
     258:	461a      	mov	r2, r3
     25a:	f000 fc0b 	bl	a74 <trace_printf>
/home/st/Desktop/Raspbian-optee/raspbian-optee/raspbian-tee1/raspbian-tee/optee_examples/secure_lab_publisher/ta/Lab_TA.c:154
     25e:	69e8      	ldr	r0, [r5, #28]
     260:	f000 ff8e 	bl	1180 <TEE_FreeTransientObject>
/home/st/Desktop/Raspbian-optee/raspbian-optee/raspbian-tee1/raspbian-tee/optee_examples/secure_lab_publisher/ta/Lab_TA.c:155
     264:	61ec      	str	r4, [r5, #28]
/home/st/Desktop/Raspbian-optee/raspbian-optee/raspbian-tee1/raspbian-tee/optee_examples/secure_lab_publisher/ta/Lab_TA.c:156
     266:	e7d0      	b.n	20a <TA_InvokeCommandEntryPoint+0x1de>
RsaEncOper():
/home/st/Desktop/Raspbian-optee/raspbian-optee/raspbian-tee1/raspbian-tee/optee_examples/secure_lab_publisher/ta/Lab_TA.c:172
     268:	69e9      	ldr	r1, [r5, #28]
     26a:	6a28      	ldr	r0, [r5, #32]
     26c:	f001 feaa 	bl	1fc4 <TEE_SetOperationKey>
/home/st/Desktop/Raspbian-optee/raspbian-optee/raspbian-tee1/raspbian-tee/optee_examples/secure_lab_publisher/ta/Lab_TA.c:173
     270:	4606      	mov	r6, r0
     272:	b188      	cbz	r0, 298 <TA_InvokeCommandEntryPoint+0x26c>
/home/st/Desktop/Raspbian-optee/raspbian-optee/raspbian-tee1/raspbian-tee/optee_examples/secure_lab_publisher/ta/Lab_TA.c:174
     274:	9001      	str	r0, [sp, #4]
     276:	21ae      	movs	r1, #174	; 0xae
     278:	4b38      	ldr	r3, [pc, #224]	; (35c <TA_InvokeCommandEntryPoint+0x330>)
     27a:	4839      	ldr	r0, [pc, #228]	; (360 <TA_InvokeCommandEntryPoint+0x334>)
     27c:	447b      	add	r3, pc
     27e:	9300      	str	r3, [sp, #0]
     280:	4478      	add	r0, pc
     282:	2301      	movs	r3, #1
     284:	461a      	mov	r2, r3
     286:	303c      	adds	r0, #60	; 0x3c
     288:	f000 fbf4 	bl	a74 <trace_printf>
/home/st/Desktop/Raspbian-optee/raspbian-optee/raspbian-tee1/raspbian-tee/optee_examples/secure_lab_publisher/ta/Lab_TA.c:175
     28c:	6a28      	ldr	r0, [r5, #32]
     28e:	f001 fae5 	bl	185c <TEE_FreeOperation>
/home/st/Desktop/Raspbian-optee/raspbian-optee/raspbian-tee1/raspbian-tee/optee_examples/secure_lab_publisher/ta/Lab_TA.c:176
     292:	f8c5 9020 	str.w	r9, [r5, #32]
/home/st/Desktop/Raspbian-optee/raspbian-optee/raspbian-tee1/raspbian-tee/optee_examples/secure_lab_publisher/ta/Lab_TA.c:177
     296:	e718      	b.n	ca <TA_InvokeCommandEntryPoint+0x9e>
/home/st/Desktop/Raspbian-optee/raspbian-optee/raspbian-tee1/raspbian-tee/optee_examples/secure_lab_publisher/ta/Lab_TA.c:180
     298:	ab05      	add	r3, sp, #20
     29a:	9701      	str	r7, [sp, #4]
     29c:	9302      	str	r3, [sp, #8]
     29e:	f04f 0a07 	mov.w	sl, #7
     2a2:	f8cd a000 	str.w	sl, [sp]
     2a6:	4602      	mov	r2, r0
     2a8:	4601      	mov	r1, r0
     2aa:	4643      	mov	r3, r8
     2ac:	6a28      	ldr	r0, [r5, #32]
     2ae:	f002 fba1 	bl	29f4 <TEE_AsymmetricEncrypt>
/home/st/Desktop/Raspbian-optee/raspbian-optee/raspbian-tee1/raspbian-tee/optee_examples/secure_lab_publisher/ta/Lab_TA.c:181
     2b2:	4681      	mov	r9, r0
     2b4:	2800      	cmp	r0, #0
     2b6:	f43f af08 	beq.w	ca <TA_InvokeCommandEntryPoint+0x9e>
/home/st/Desktop/Raspbian-optee/raspbian-optee/raspbian-tee1/raspbian-tee/optee_examples/secure_lab_publisher/ta/Lab_TA.c:182
     2ba:	4f2a      	ldr	r7, [pc, #168]	; (364 <TA_InvokeCommandEntryPoint+0x338>)
     2bc:	21b6      	movs	r1, #182	; 0xb6
     2be:	4b2a      	ldr	r3, [pc, #168]	; (368 <TA_InvokeCommandEntryPoint+0x33c>)
     2c0:	447f      	add	r7, pc
     2c2:	f8cd 8004 	str.w	r8, [sp, #4]
     2c6:	373c      	adds	r7, #60	; 0x3c
     2c8:	447b      	add	r3, pc
     2ca:	9300      	str	r3, [sp, #0]
     2cc:	2301      	movs	r3, #1
     2ce:	461a      	mov	r2, r3
     2d0:	4638      	mov	r0, r7
     2d2:	f000 fbcf 	bl	a74 <trace_printf>
/home/st/Desktop/Raspbian-optee/raspbian-optee/raspbian-tee1/raspbian-tee/optee_examples/secure_lab_publisher/ta/Lab_TA.c:183
     2d6:	4b25      	ldr	r3, [pc, #148]	; (36c <TA_InvokeCommandEntryPoint+0x340>)
     2d8:	21b7      	movs	r1, #183	; 0xb7
     2da:	4638      	mov	r0, r7
     2dc:	447b      	add	r3, pc
     2de:	9300      	str	r3, [sp, #0]
     2e0:	2301      	movs	r3, #1
     2e2:	f8cd a004 	str.w	sl, [sp, #4]
     2e6:	461a      	mov	r2, r3
     2e8:	f000 fbc4 	bl	a74 <trace_printf>
/home/st/Desktop/Raspbian-optee/raspbian-optee/raspbian-tee1/raspbian-tee/optee_examples/secure_lab_publisher/ta/Lab_TA.c:184
     2ec:	4b20      	ldr	r3, [pc, #128]	; (370 <TA_InvokeCommandEntryPoint+0x344>)
     2ee:	21b8      	movs	r1, #184	; 0xb8
     2f0:	4638      	mov	r0, r7
     2f2:	447b      	add	r3, pc
     2f4:	9300      	str	r3, [sp, #0]
     2f6:	2301      	movs	r3, #1
     2f8:	f8cd 9004 	str.w	r9, [sp, #4]
     2fc:	461a      	mov	r2, r3
     2fe:	f000 fbb9 	bl	a74 <trace_printf>
/home/st/Desktop/Raspbian-optee/raspbian-optee/raspbian-tee1/raspbian-tee/optee_examples/secure_lab_publisher/ta/Lab_TA.c:185
     302:	6a28      	ldr	r0, [r5, #32]
     304:	f001 faaa 	bl	185c <TEE_FreeOperation>
/home/st/Desktop/Raspbian-optee/raspbian-optee/raspbian-tee1/raspbian-tee/optee_examples/secure_lab_publisher/ta/Lab_TA.c:186
     308:	622e      	str	r6, [r5, #32]
/home/st/Desktop/Raspbian-optee/raspbian-optee/raspbian-tee1/raspbian-tee/optee_examples/secure_lab_publisher/ta/Lab_TA.c:187
     30a:	e6de      	b.n	ca <TA_InvokeCommandEntryPoint+0x9e>
     30c:	ffff0006 	.word	0xffff0006
     310:	d0000130 	.word	0xd0000130
     314:	d0000230 	.word	0xd0000230
     318:	a0000030 	.word	0xa0000030
     31c:	60000130 	.word	0x60000130
     320:	00007c36 	.word	0x00007c36
     324:	00007f28 	.word	0x00007f28
     328:	00007f27 	.word	0x00007f27
     32c:	00007b92 	.word	0x00007b92
     330:	00007e7c 	.word	0x00007e7c
     334:	00007e7f 	.word	0x00007e7f
     338:	00007e88 	.word	0x00007e88
     33c:	00009e70 	.word	0x00009e70
     340:	00007e7a 	.word	0x00007e7a
     344:	0000a0fa 	.word	0x0000a0fa
     348:	00007e29 	.word	0x00007e29
     34c:	0000a08c 	.word	0x0000a08c
     350:	00007e55 	.word	0x00007e55
     354:	00007a58 	.word	0x00007a58
     358:	00007e00 	.word	0x00007e00
     35c:	00007e2e 	.word	0x00007e2e
     360:	00007a04 	.word	0x00007a04
     364:	000079c4 	.word	0x000079c4
     368:	00007e0a 	.word	0x00007e0a
     36c:	00007e0a 	.word	0x00007e0a
     370:	00007e0f 	.word	0x00007e0f

00000374 <__vsnprintf>:
__vsnprintf():
/home/st/Desktop/Raspbian-optee/raspbian-optee/raspbian-tee1/raspbian-tee/optee_os/lib/libutils/ext/snprintk.c:137
     374:	e92d 4ff0 	stmdb	sp!, {r4, r5, r6, r7, r8, r9, sl, fp, lr}
/home/st/Desktop/Raspbian-optee/raspbian-optee/raspbian-tee1/raspbian-tee/optee_os/lib/libutils/ext/snprintk.c:141
     378:	4680      	mov	r8, r0
     37a:	461f      	mov	r7, r3
/home/st/Desktop/Raspbian-optee/raspbian-optee/raspbian-tee1/raspbian-tee/optee_os/lib/libutils/ext/snprintk.c:137
     37c:	b09f      	sub	sp, #124	; 0x7c
kprintf():
/home/st/Desktop/Raspbian-optee/raspbian-optee/raspbian-tee1/raspbian-tee/optee_os/lib/libutils/ext/snprintk.c:269
     37e:	2300      	movs	r3, #0
__vsnprintf():
/home/st/Desktop/Raspbian-optee/raspbian-optee/raspbian-tee1/raspbian-tee/optee_os/lib/libutils/ext/snprintk.c:137
     380:	920a      	str	r2, [sp, #40]	; 0x28
     382:	f89d 20a0 	ldrb.w	r2, [sp, #160]	; 0xa0
     386:	9213      	str	r2, [sp, #76]	; 0x4c
/home/st/Desktop/Raspbian-optee/raspbian-optee/raspbian-tee1/raspbian-tee/optee_os/lib/libutils/ext/snprintk.c:141
     388:	4602      	mov	r2, r0
     38a:	440a      	add	r2, r1
/home/st/Desktop/Raspbian-optee/raspbian-optee/raspbian-tee1/raspbian-tee/optee_os/lib/libutils/ext/snprintk.c:137
     38c:	9010      	str	r0, [sp, #64]	; 0x40
     38e:	9112      	str	r1, [sp, #72]	; 0x48
/home/st/Desktop/Raspbian-optee/raspbian-optee/raspbian-tee1/raspbian-tee/optee_os/lib/libutils/ext/snprintk.c:141
     390:	920e      	str	r2, [sp, #56]	; 0x38
kprintf():
/home/st/Desktop/Raspbian-optee/raspbian-optee/raspbian-tee1/raspbian-tee/optee_os/lib/libutils/ext/snprintk.c:269
     392:	930f      	str	r3, [sp, #60]	; 0x3c
/home/st/Desktop/Raspbian-optee/raspbian-optee/raspbian-tee1/raspbian-tee/optee_os/lib/libutils/ext/snprintk.c:267
     394:	930c      	str	r3, [sp, #48]	; 0x30
/home/st/Desktop/Raspbian-optee/raspbian-optee/raspbian-tee1/raspbian-tee/optee_os/lib/libutils/ext/snprintk.c:275
     396:	9b0a      	ldr	r3, [sp, #40]	; 0x28
     398:	781b      	ldrb	r3, [r3, #0]
     39a:	2b25      	cmp	r3, #37	; 0x25
     39c:	d023      	beq.n	3e6 <__vsnprintf+0x72>
     39e:	b99b      	cbnz	r3, 3c8 <__vsnprintf+0x54>
__vsnprintf():
/home/st/Desktop/Raspbian-optee/raspbian-optee/raspbian-tee1/raspbian-tee/optee_os/lib/libutils/ext/snprintk.c:143
     3a0:	9b10      	ldr	r3, [sp, #64]	; 0x40
     3a2:	b16b      	cbz	r3, 3c0 <__vsnprintf+0x4c>
/home/st/Desktop/Raspbian-optee/raspbian-optee/raspbian-tee1/raspbian-tee/optee_os/lib/libutils/ext/snprintk.c:143 (discriminator 1)
     3a4:	9b12      	ldr	r3, [sp, #72]	; 0x48
     3a6:	b15b      	cbz	r3, 3c0 <__vsnprintf+0x4c>
/home/st/Desktop/Raspbian-optee/raspbian-optee/raspbian-tee1/raspbian-tee/optee_os/lib/libutils/ext/snprintk.c:145
     3a8:	9b0c      	ldr	r3, [sp, #48]	; 0x30
     3aa:	9a12      	ldr	r2, [sp, #72]	; 0x48
     3ac:	4293      	cmp	r3, r2
/home/st/Desktop/Raspbian-optee/raspbian-optee/raspbian-tee1/raspbian-tee/optee_os/lib/libutils/ext/snprintk.c:146
     3ae:	9a10      	ldr	r2, [sp, #64]	; 0x40
     3b0:	f04f 0300 	mov.w	r3, #0
/home/st/Desktop/Raspbian-optee/raspbian-optee/raspbian-tee1/raspbian-tee/optee_os/lib/libutils/ext/snprintk.c:145
     3b4:	f0c0 8324 	bcc.w	a00 <__vsnprintf+0x68c>
/home/st/Desktop/Raspbian-optee/raspbian-optee/raspbian-tee1/raspbian-tee/optee_os/lib/libutils/ext/snprintk.c:146
     3b8:	9812      	ldr	r0, [sp, #72]	; 0x48
     3ba:	4402      	add	r2, r0
     3bc:	f802 3c01 	strb.w	r3, [r2, #-1]
/home/st/Desktop/Raspbian-optee/raspbian-optee/raspbian-tee1/raspbian-tee/optee_os/lib/libutils/ext/snprintk.c:151
     3c0:	980c      	ldr	r0, [sp, #48]	; 0x30
     3c2:	b01f      	add	sp, #124	; 0x7c
     3c4:	e8bd 8ff0 	ldmia.w	sp!, {r4, r5, r6, r7, r8, r9, sl, fp, pc}
kprintf():
/home/st/Desktop/Raspbian-optee/raspbian-optee/raspbian-tee1/raspbian-tee/optee_os/lib/libutils/ext/snprintk.c:276
     3c8:	9a0c      	ldr	r2, [sp, #48]	; 0x30
     3ca:	3201      	adds	r2, #1
     3cc:	920c      	str	r2, [sp, #48]	; 0x30
/home/st/Desktop/Raspbian-optee/raspbian-optee/raspbian-tee1/raspbian-tee/optee_os/lib/libutils/ext/snprintk.c:277
     3ce:	f1b8 0f00 	cmp.w	r8, #0
     3d2:	d004      	beq.n	3de <__vsnprintf+0x6a>
     3d4:	9a0e      	ldr	r2, [sp, #56]	; 0x38
     3d6:	4542      	cmp	r2, r8
     3d8:	d901      	bls.n	3de <__vsnprintf+0x6a>
     3da:	f808 3b01 	strb.w	r3, [r8], #1
/home/st/Desktop/Raspbian-optee/raspbian-optee/raspbian-tee1/raspbian-tee/optee_os/lib/libutils/ext/snprintk.c:275
     3de:	9b0a      	ldr	r3, [sp, #40]	; 0x28
     3e0:	3301      	adds	r3, #1
     3e2:	930a      	str	r3, [sp, #40]	; 0x28
     3e4:	e7d7      	b.n	396 <__vsnprintf+0x22>
/home/st/Desktop/Raspbian-optee/raspbian-optee/raspbian-tee1/raspbian-tee/optee_os/lib/libutils/ext/snprintk.c:282
     3e6:	9a0a      	ldr	r2, [sp, #40]	; 0x28
/home/st/Desktop/Raspbian-optee/raspbian-optee/raspbian-tee1/raspbian-tee/optee_os/lib/libutils/ext/snprintk.c:288
     3e8:	f04f 0900 	mov.w	r9, #0
/home/st/Desktop/Raspbian-optee/raspbian-optee/raspbian-tee1/raspbian-tee/optee_os/lib/libutils/ext/snprintk.c:282
     3ec:	463b      	mov	r3, r7
/home/st/Desktop/Raspbian-optee/raspbian-optee/raspbian-tee1/raspbian-tee/optee_os/lib/libutils/ext/snprintk.c:287
     3ee:	f04f 3bff 	mov.w	fp, #4294967295	; 0xffffffff
/home/st/Desktop/Raspbian-optee/raspbian-optee/raspbian-tee1/raspbian-tee/optee_os/lib/libutils/ext/snprintk.c:282
     3f2:	3201      	adds	r2, #1
/home/st/Desktop/Raspbian-optee/raspbian-optee/raspbian-tee1/raspbian-tee/optee_os/lib/libutils/ext/snprintk.c:284
     3f4:	464e      	mov	r6, r9
/home/st/Desktop/Raspbian-optee/raspbian-optee/raspbian-tee1/raspbian-tee/optee_os/lib/libutils/ext/snprintk.c:286
     3f6:	f8cd 9034 	str.w	r9, [sp, #52]	; 0x34
/home/st/Desktop/Raspbian-optee/raspbian-optee/raspbian-tee1/raspbian-tee/optee_os/lib/libutils/ext/snprintk.c:290
     3fa:	4611      	mov	r1, r2
     3fc:	f811 2b01 	ldrb.w	r2, [r1], #1
     400:	920b      	str	r2, [sp, #44]	; 0x2c
     402:	460a      	mov	r2, r1
/home/st/Desktop/Raspbian-optee/raspbian-optee/raspbian-tee1/raspbian-tee/optee_os/lib/libutils/ext/snprintk.c:284
     404:	920a      	str	r2, [sp, #40]	; 0x28
/home/st/Desktop/Raspbian-optee/raspbian-optee/raspbian-tee1/raspbian-tee/optee_os/lib/libutils/ext/snprintk.c:291
     406:	9a0b      	ldr	r2, [sp, #44]	; 0x2c
     408:	2a39      	cmp	r2, #57	; 0x39
     40a:	dc6f      	bgt.n	4ec <__vsnprintf+0x178>
     40c:	2a1f      	cmp	r2, #31
     40e:	f340 82a9 	ble.w	964 <__vsnprintf+0x5f0>
     412:	9a0b      	ldr	r2, [sp, #44]	; 0x2c
     414:	3a20      	subs	r2, #32
     416:	2a19      	cmp	r2, #25
     418:	d86c      	bhi.n	4f4 <__vsnprintf+0x180>
     41a:	e8df f002 	tbb	[pc, r2]
     41e:	6b70      	.short	0x6b70
     420:	6b6b776b 	.word	0x6b6b776b
     424:	6b6b6b6b 	.word	0x6b6b6b6b
     428:	836b0d7a 	.word	0x836b0d7a
     42c:	a5a26b86 	.word	0xa5a26b86
     430:	a5a5a5a5 	.word	0xa5a5a5a5
     434:	a5a5a5a5 	.word	0xa5a5a5a5
/home/st/Desktop/Raspbian-optee/raspbian-optee/raspbian-tee1/raspbian-tee/optee_os/lib/libutils/ext/snprintk.c:319
     438:	f04f 092b 	mov.w	r9, #43	; 0x2b
/home/st/Desktop/Raspbian-optee/raspbian-optee/raspbian-tee1/raspbian-tee/optee_os/lib/libutils/ext/snprintk.c:311
     43c:	9a0a      	ldr	r2, [sp, #40]	; 0x28
     43e:	e7dc      	b.n	3fa <__vsnprintf+0x86>
     440:	463b      	mov	r3, r7
     442:	e7fb      	b.n	43c <__vsnprintf+0xc8>
     444:	2a36      	cmp	r2, #54	; 0x36
     446:	d855      	bhi.n	4f4 <__vsnprintf+0x180>
     448:	e8df f012 	tbh	[pc, r2, lsl #1]
     44c:	005400c4 	.word	0x005400c4
     450:	00540054 	.word	0x00540054
     454:	00540054 	.word	0x00540054
     458:	00540054 	.word	0x00540054
     45c:	00540054 	.word	0x00540054
     460:	01820054 	.word	0x01820054
     464:	00540054 	.word	0x00540054
     468:	00540054 	.word	0x00540054
     46c:	02140054 	.word	0x02140054
     470:	00540054 	.word	0x00540054
     474:	00540245 	.word	0x00540245
     478:	00540054 	.word	0x00540054
     47c:	00540054 	.word	0x00540054
     480:	00540054 	.word	0x00540054
     484:	00540054 	.word	0x00540054
     488:	00b80054 	.word	0x00b80054
     48c:	005400c6 	.word	0x005400c6
     490:	00540054 	.word	0x00540054
     494:	00c6009f 	.word	0x00c6009f
     498:	005400a2 	.word	0x005400a2
     49c:	005400a5 	.word	0x005400a5
     4a0:	01840165 	.word	0x01840165
     4a4:	00ac01a7 	.word	0x00ac01a7
     4a8:	01f60054 	.word	0x01f60054
     4ac:	021600b2 	.word	0x021600b2
     4b0:	00540054 	.word	0x00540054
     4b4:	00540037 	.word	0x00540037
     4b8:	00b5      	.short	0x00b5
/home/st/Desktop/Raspbian-optee/raspbian-optee/raspbian-tee1/raspbian-tee/optee_os/lib/libutils/ext/snprintk.c:474
     4ba:	f8df 254c 	ldr.w	r2, [pc, #1356]	; a08 <__vsnprintf+0x694>
     4be:	447a      	add	r2, pc
     4c0:	3211      	adds	r2, #17
/home/st/Desktop/Raspbian-optee/raspbian-optee/raspbian-tee1/raspbian-tee/optee_os/lib/libutils/ext/snprintk.c:471
     4c2:	920f      	str	r2, [sp, #60]	; 0x3c
/home/st/Desktop/Raspbian-optee/raspbian-optee/raspbian-tee1/raspbian-tee/optee_os/lib/libutils/ext/snprintk.c:475
     4c4:	0630      	lsls	r0, r6, #24
     4c6:	f140 8209 	bpl.w	8dc <__vsnprintf+0x568>
     4ca:	1ddf      	adds	r7, r3, #7
     4cc:	f027 0707 	bic.w	r7, r7, #7
     4d0:	e8f7 4502 	ldrd	r4, r5, [r7], #8
/home/st/Desktop/Raspbian-optee/raspbian-optee/raspbian-tee1/raspbian-tee/optee_os/lib/libutils/ext/snprintk.c:478
     4d4:	07f0      	lsls	r0, r6, #31
     4d6:	f140 8199 	bpl.w	80c <__vsnprintf+0x498>
     4da:	ea54 0305 	orrs.w	r3, r4, r5
     4de:	d001      	beq.n	4e4 <__vsnprintf+0x170>
/home/st/Desktop/Raspbian-optee/raspbian-optee/raspbian-tee1/raspbian-tee/optee_os/lib/libutils/ext/snprintk.c:479
     4e0:	f046 0602 	orr.w	r6, r6, #2
/home/st/Desktop/Raspbian-optee/raspbian-optee/raspbian-tee1/raspbian-tee/optee_os/lib/libutils/ext/snprintk.c:476
     4e4:	2302      	movs	r3, #2
/home/st/Desktop/Raspbian-optee/raspbian-optee/raspbian-tee1/raspbian-tee/optee_os/lib/libutils/ext/snprintk.c:482
     4e6:	f04f 0900 	mov.w	r9, #0
     4ea:	e089      	b.n	600 <__vsnprintf+0x28c>
/home/st/Desktop/Raspbian-optee/raspbian-optee/raspbian-tee1/raspbian-tee/optee_os/lib/libutils/ext/snprintk.c:291
     4ec:	9a0b      	ldr	r2, [sp, #44]	; 0x2c
     4ee:	3a44      	subs	r2, #68	; 0x44
     4f0:	2a36      	cmp	r2, #54	; 0x36
     4f2:	d9a7      	bls.n	444 <__vsnprintf+0xd0>
/home/st/Desktop/Raspbian-optee/raspbian-optee/raspbian-tee1/raspbian-tee/optee_os/lib/libutils/ext/snprintk.c:545
     4f4:	9a0b      	ldr	r2, [sp, #44]	; 0x2c
/home/st/Desktop/Raspbian-optee/raspbian-optee/raspbian-tee1/raspbian-tee/optee_os/lib/libutils/ext/snprintk.c:548
     4f6:	461f      	mov	r7, r3
/home/st/Desktop/Raspbian-optee/raspbian-optee/raspbian-tee1/raspbian-tee/optee_os/lib/libutils/ext/snprintk.c:545
     4f8:	f88d 2050 	strb.w	r2, [sp, #80]	; 0x50
/home/st/Desktop/Raspbian-optee/raspbian-optee/raspbian-tee1/raspbian-tee/optee_os/lib/libutils/ext/snprintk.c:548
     4fc:	e063      	b.n	5c6 <__vsnprintf+0x252>
/home/st/Desktop/Raspbian-optee/raspbian-optee/raspbian-tee1/raspbian-tee/optee_os/lib/libutils/ext/snprintk.c:299
     4fe:	f1b9 0f00 	cmp.w	r9, #0
     502:	f04f 0220 	mov.w	r2, #32
     506:	bf08      	it	eq
     508:	4691      	moveq	r9, r2
     50a:	e797      	b.n	43c <__vsnprintf+0xc8>
/home/st/Desktop/Raspbian-optee/raspbian-optee/raspbian-tee1/raspbian-tee/optee_os/lib/libutils/ext/snprintk.c:302
     50c:	f046 0601 	orr.w	r6, r6, #1
/home/st/Desktop/Raspbian-optee/raspbian-optee/raspbian-tee1/raspbian-tee/optee_os/lib/libutils/ext/snprintk.c:303
     510:	e794      	b.n	43c <__vsnprintf+0xc8>
/home/st/Desktop/Raspbian-optee/raspbian-optee/raspbian-tee1/raspbian-tee/optee_os/lib/libutils/ext/snprintk.c:311
     512:	461f      	mov	r7, r3
     514:	f857 3b04 	ldr.w	r3, [r7], #4
     518:	930d      	str	r3, [sp, #52]	; 0x34
     51a:	2b00      	cmp	r3, #0
     51c:	da90      	bge.n	440 <__vsnprintf+0xcc>
/home/st/Desktop/Raspbian-optee/raspbian-optee/raspbian-tee1/raspbian-tee/optee_os/lib/libutils/ext/snprintk.c:313
     51e:	425b      	negs	r3, r3
     520:	930d      	str	r3, [sp, #52]	; 0x34
/home/st/Desktop/Raspbian-optee/raspbian-optee/raspbian-tee1/raspbian-tee/optee_os/lib/libutils/ext/snprintk.c:311
     522:	463b      	mov	r3, r7
/home/st/Desktop/Raspbian-optee/raspbian-optee/raspbian-tee1/raspbian-tee/optee_os/lib/libutils/ext/snprintk.c:316
     524:	f046 0604 	orr.w	r6, r6, #4
/home/st/Desktop/Raspbian-optee/raspbian-optee/raspbian-tee1/raspbian-tee/optee_os/lib/libutils/ext/snprintk.c:317
     528:	e788      	b.n	43c <__vsnprintf+0xc8>
/home/st/Desktop/Raspbian-optee/raspbian-optee/raspbian-tee1/raspbian-tee/optee_os/lib/libutils/ext/snprintk.c:322
     52a:	9a0a      	ldr	r2, [sp, #40]	; 0x28
     52c:	f812 1b01 	ldrb.w	r1, [r2], #1
     530:	910b      	str	r1, [sp, #44]	; 0x2c
     532:	292a      	cmp	r1, #42	; 0x2a
     534:	d112      	bne.n	55c <__vsnprintf+0x1e8>
/home/st/Desktop/Raspbian-optee/raspbian-optee/raspbian-tee1/raspbian-tee/optee_os/lib/libutils/ext/snprintk.c:323
     536:	461f      	mov	r7, r3
/home/st/Desktop/Raspbian-optee/raspbian-optee/raspbian-tee1/raspbian-tee/optee_os/lib/libutils/ext/snprintk.c:322
     538:	920a      	str	r2, [sp, #40]	; 0x28
/home/st/Desktop/Raspbian-optee/raspbian-optee/raspbian-tee1/raspbian-tee/optee_os/lib/libutils/ext/snprintk.c:324
     53a:	f857 0b04 	ldr.w	r0, [r7], #4
/home/st/Desktop/Raspbian-optee/raspbian-optee/raspbian-tee1/raspbian-tee/optee_os/lib/libutils/ext/snprintk.c:323
     53e:	463b      	mov	r3, r7
/home/st/Desktop/Raspbian-optee/raspbian-optee/raspbian-tee1/raspbian-tee/optee_os/lib/libutils/ext/snprintk.c:324
     540:	ea40 7be0 	orr.w	fp, r0, r0, asr #31
/home/st/Desktop/Raspbian-optee/raspbian-optee/raspbian-tee1/raspbian-tee/optee_os/lib/libutils/ext/snprintk.c:325
     544:	e77a      	b.n	43c <__vsnprintf+0xc8>
/home/st/Desktop/Raspbian-optee/raspbian-optee/raspbian-tee1/raspbian-tee/optee_os/lib/libutils/ext/snprintk.c:329
     546:	200a      	movs	r0, #10
     548:	fb00 1b0b 	mla	fp, r0, fp, r1
/home/st/Desktop/Raspbian-optee/raspbian-optee/raspbian-tee1/raspbian-tee/optee_os/lib/libutils/ext/snprintk.c:330
     54c:	f812 1b01 	ldrb.w	r1, [r2], #1
     550:	910b      	str	r1, [sp, #44]	; 0x2c
/home/st/Desktop/Raspbian-optee/raspbian-optee/raspbian-tee1/raspbian-tee/optee_os/lib/libutils/ext/snprintk.c:328
     552:	990b      	ldr	r1, [sp, #44]	; 0x2c
     554:	3930      	subs	r1, #48	; 0x30
     556:	2909      	cmp	r1, #9
     558:	d9f5      	bls.n	546 <__vsnprintf+0x1d2>
     55a:	e753      	b.n	404 <__vsnprintf+0x90>
/home/st/Desktop/Raspbian-optee/raspbian-optee/raspbian-tee1/raspbian-tee/optee_os/lib/libutils/ext/snprintk.c:327
     55c:	f04f 0b00 	mov.w	fp, #0
     560:	e7f7      	b.n	552 <__vsnprintf+0x1de>
/home/st/Desktop/Raspbian-optee/raspbian-optee/raspbian-tee1/raspbian-tee/optee_os/lib/libutils/ext/snprintk.c:340
     562:	f446 6680 	orr.w	r6, r6, #1024	; 0x400
/home/st/Desktop/Raspbian-optee/raspbian-optee/raspbian-tee1/raspbian-tee/optee_os/lib/libutils/ext/snprintk.c:341
     566:	e769      	b.n	43c <__vsnprintf+0xc8>
/home/st/Desktop/Raspbian-optee/raspbian-optee/raspbian-tee1/raspbian-tee/optee_os/lib/libutils/ext/snprintk.c:291
     568:	9a0a      	ldr	r2, [sp, #40]	; 0x28
     56a:	2100      	movs	r1, #0
     56c:	910d      	str	r1, [sp, #52]	; 0x34
/home/st/Desktop/Raspbian-optee/raspbian-optee/raspbian-tee1/raspbian-tee/optee_os/lib/libutils/ext/snprintk.c:346
     56e:	990b      	ldr	r1, [sp, #44]	; 0x2c
     570:	240a      	movs	r4, #10
     572:	980d      	ldr	r0, [sp, #52]	; 0x34
     574:	3930      	subs	r1, #48	; 0x30
     576:	fb04 1100 	mla	r1, r4, r0, r1
     57a:	910d      	str	r1, [sp, #52]	; 0x34
/home/st/Desktop/Raspbian-optee/raspbian-optee/raspbian-tee1/raspbian-tee/optee_os/lib/libutils/ext/snprintk.c:347
     57c:	f812 1b01 	ldrb.w	r1, [r2], #1
     580:	910b      	str	r1, [sp, #44]	; 0x2c
/home/st/Desktop/Raspbian-optee/raspbian-optee/raspbian-tee1/raspbian-tee/optee_os/lib/libutils/ext/snprintk.c:348
     582:	3930      	subs	r1, #48	; 0x30
     584:	2909      	cmp	r1, #9
     586:	d9f2      	bls.n	56e <__vsnprintf+0x1fa>
     588:	e73c      	b.n	404 <__vsnprintf+0x90>
/home/st/Desktop/Raspbian-optee/raspbian-optee/raspbian-tee1/raspbian-tee/optee_os/lib/libutils/ext/snprintk.c:352
     58a:	f046 0640 	orr.w	r6, r6, #64	; 0x40
/home/st/Desktop/Raspbian-optee/raspbian-optee/raspbian-tee1/raspbian-tee/optee_os/lib/libutils/ext/snprintk.c:353
     58e:	e755      	b.n	43c <__vsnprintf+0xc8>
/home/st/Desktop/Raspbian-optee/raspbian-optee/raspbian-tee1/raspbian-tee/optee_os/lib/libutils/ext/snprintk.c:355
     590:	f046 0680 	orr.w	r6, r6, #128	; 0x80
/home/st/Desktop/Raspbian-optee/raspbian-optee/raspbian-tee1/raspbian-tee/optee_os/lib/libutils/ext/snprintk.c:356
     594:	e752      	b.n	43c <__vsnprintf+0xc8>
/home/st/Desktop/Raspbian-optee/raspbian-optee/raspbian-tee1/raspbian-tee/optee_os/lib/libutils/ext/snprintk.c:358
     596:	9a0a      	ldr	r2, [sp, #40]	; 0x28
     598:	7812      	ldrb	r2, [r2, #0]
     59a:	2a6c      	cmp	r2, #108	; 0x6c
     59c:	d105      	bne.n	5aa <__vsnprintf+0x236>
     59e:	9a0a      	ldr	r2, [sp, #40]	; 0x28
     5a0:	3201      	adds	r2, #1
     5a2:	920a      	str	r2, [sp, #40]	; 0x28
/home/st/Desktop/Raspbian-optee/raspbian-optee/raspbian-tee1/raspbian-tee/optee_os/lib/libutils/ext/snprintk.c:366
     5a4:	f046 0620 	orr.w	r6, r6, #32
/home/st/Desktop/Raspbian-optee/raspbian-optee/raspbian-tee1/raspbian-tee/optee_os/lib/libutils/ext/snprintk.c:367
     5a8:	e748      	b.n	43c <__vsnprintf+0xc8>
/home/st/Desktop/Raspbian-optee/raspbian-optee/raspbian-tee1/raspbian-tee/optee_os/lib/libutils/ext/snprintk.c:362
     5aa:	f046 0610 	orr.w	r6, r6, #16
     5ae:	e745      	b.n	43c <__vsnprintf+0xc8>
/home/st/Desktop/Raspbian-optee/raspbian-optee/raspbian-tee1/raspbian-tee/optee_os/lib/libutils/ext/snprintk.c:369
     5b0:	f446 7680 	orr.w	r6, r6, #256	; 0x100
/home/st/Desktop/Raspbian-optee/raspbian-optee/raspbian-tee1/raspbian-tee/optee_os/lib/libutils/ext/snprintk.c:370
     5b4:	e742      	b.n	43c <__vsnprintf+0xc8>
/home/st/Desktop/Raspbian-optee/raspbian-optee/raspbian-tee1/raspbian-tee/optee_os/lib/libutils/ext/snprintk.c:372
     5b6:	f446 7600 	orr.w	r6, r6, #512	; 0x200
/home/st/Desktop/Raspbian-optee/raspbian-optee/raspbian-tee1/raspbian-tee/optee_os/lib/libutils/ext/snprintk.c:373
     5ba:	e73f      	b.n	43c <__vsnprintf+0xc8>
/home/st/Desktop/Raspbian-optee/raspbian-optee/raspbian-tee1/raspbian-tee/optee_os/lib/libutils/ext/snprintk.c:375
     5bc:	461f      	mov	r7, r3
     5be:	f857 3b04 	ldr.w	r3, [r7], #4
     5c2:	f88d 3050 	strb.w	r3, [sp, #80]	; 0x50
/home/st/Desktop/Raspbian-optee/raspbian-optee/raspbian-tee1/raspbian-tee/optee_os/lib/libutils/ext/snprintk.c:285
     5c6:	2000      	movs	r0, #0
/home/st/Desktop/Raspbian-optee/raspbian-optee/raspbian-tee1/raspbian-tee/optee_os/lib/libutils/ext/snprintk.c:546
     5c8:	f04f 0b01 	mov.w	fp, #1
/home/st/Desktop/Raspbian-optee/raspbian-optee/raspbian-tee1/raspbian-tee/optee_os/lib/libutils/ext/snprintk.c:547
     5cc:	4681      	mov	r9, r0
/home/st/Desktop/Raspbian-optee/raspbian-optee/raspbian-tee1/raspbian-tee/optee_os/lib/libutils/ext/snprintk.c:544
     5ce:	f10d 0a50 	add.w	sl, sp, #80	; 0x50
/home/st/Desktop/Raspbian-optee/raspbian-optee/raspbian-tee1/raspbian-tee/optee_os/lib/libutils/ext/snprintk.c:548
     5d2:	e03c      	b.n	64e <__vsnprintf+0x2da>
/home/st/Desktop/Raspbian-optee/raspbian-optee/raspbian-tee1/raspbian-tee/optee_os/lib/libutils/ext/snprintk.c:380
     5d4:	f046 0610 	orr.w	r6, r6, #16
/home/st/Desktop/Raspbian-optee/raspbian-optee/raspbian-tee1/raspbian-tee/optee_os/lib/libutils/ext/snprintk.c:384
     5d8:	0630      	lsls	r0, r6, #24
     5da:	f140 8085 	bpl.w	6e8 <__vsnprintf+0x374>
     5de:	1ddf      	adds	r7, r3, #7
     5e0:	f027 0707 	bic.w	r7, r7, #7
     5e4:	e8f7 4502 	ldrd	r4, r5, [r7], #8
/home/st/Desktop/Raspbian-optee/raspbian-optee/raspbian-tee1/raspbian-tee/optee_os/lib/libutils/ext/snprintk.c:385
     5e8:	2c00      	cmp	r4, #0
     5ea:	f175 0300 	sbcs.w	r3, r5, #0
     5ee:	f280 814d 	bge.w	88c <__vsnprintf+0x518>
/home/st/Desktop/Raspbian-optee/raspbian-optee/raspbian-tee1/raspbian-tee/optee_os/lib/libutils/ext/snprintk.c:386
     5f2:	4264      	negs	r4, r4
/home/st/Desktop/Raspbian-optee/raspbian-optee/raspbian-tee1/raspbian-tee/optee_os/lib/libutils/ext/snprintk.c:389
     5f4:	f04f 0301 	mov.w	r3, #1
/home/st/Desktop/Raspbian-optee/raspbian-optee/raspbian-tee1/raspbian-tee/optee_os/lib/libutils/ext/snprintk.c:387
     5f8:	f04f 092d 	mov.w	r9, #45	; 0x2d
/home/st/Desktop/Raspbian-optee/raspbian-optee/raspbian-tee1/raspbian-tee/optee_os/lib/libutils/ext/snprintk.c:386
     5fc:	eb65 0545 	sbc.w	r5, r5, r5, lsl #1
/home/st/Desktop/Raspbian-optee/raspbian-optee/raspbian-tee1/raspbian-tee/optee_os/lib/libutils/ext/snprintk.c:488
     600:	f1bb 3fff 	cmp.w	fp, #4294967295	; 0xffffffff
     604:	f040 8180 	bne.w	908 <__vsnprintf+0x594>
/home/st/Desktop/Raspbian-optee/raspbian-optee/raspbian-tee1/raspbian-tee/optee_os/lib/libutils/ext/snprintk.c:503
     608:	2b01      	cmp	r3, #1
     60a:	f000 8142 	beq.w	892 <__vsnprintf+0x51e>
     60e:	2b02      	cmp	r3, #2
     610:	f000 8102 	beq.w	818 <__vsnprintf+0x4a4>
/home/st/Desktop/Raspbian-optee/raspbian-optee/raspbian-tee1/raspbian-tee/optee_os/lib/libutils/ext/snprintk.c:488
     614:	f10d 0a75 	add.w	sl, sp, #117	; 0x75
/home/st/Desktop/Raspbian-optee/raspbian-optee/raspbian-tee1/raspbian-tee/optee_os/lib/libutils/ext/snprintk.c:506
     618:	f004 0307 	and.w	r3, r4, #7
/home/st/Desktop/Raspbian-optee/raspbian-optee/raspbian-tee1/raspbian-tee/optee_os/lib/libutils/ext/snprintk.c:507
     61c:	08e4      	lsrs	r4, r4, #3
     61e:	ea44 7445 	orr.w	r4, r4, r5, lsl #29
     622:	08ed      	lsrs	r5, r5, #3
     624:	4652      	mov	r2, sl
/home/st/Desktop/Raspbian-optee/raspbian-optee/raspbian-tee1/raspbian-tee/optee_os/lib/libutils/ext/snprintk.c:506
     626:	3330      	adds	r3, #48	; 0x30
/home/st/Desktop/Raspbian-optee/raspbian-optee/raspbian-tee1/raspbian-tee/optee_os/lib/libutils/ext/snprintk.c:508
     628:	ea54 0105 	orrs.w	r1, r4, r5
/home/st/Desktop/Raspbian-optee/raspbian-optee/raspbian-tee1/raspbian-tee/optee_os/lib/libutils/ext/snprintk.c:506
     62c:	f80a 3d01 	strb.w	r3, [sl, #-1]!
/home/st/Desktop/Raspbian-optee/raspbian-optee/raspbian-tee1/raspbian-tee/optee_os/lib/libutils/ext/snprintk.c:508
     630:	d1f2      	bne.n	618 <__vsnprintf+0x2a4>
/home/st/Desktop/Raspbian-optee/raspbian-optee/raspbian-tee1/raspbian-tee/optee_os/lib/libutils/ext/snprintk.c:510
     632:	07f1      	lsls	r1, r6, #31
     634:	d506      	bpl.n	644 <__vsnprintf+0x2d0>
     636:	2b30      	cmp	r3, #48	; 0x30
     638:	d004      	beq.n	644 <__vsnprintf+0x2d0>
/home/st/Desktop/Raspbian-optee/raspbian-optee/raspbian-tee1/raspbian-tee/optee_os/lib/libutils/ext/snprintk.c:511
     63a:	2330      	movs	r3, #48	; 0x30
     63c:	f80a 3c01 	strb.w	r3, [sl, #-1]
     640:	f1a2 0a02 	sub.w	sl, r2, #2
/home/st/Desktop/Raspbian-optee/raspbian-optee/raspbian-tee1/raspbian-tee/optee_os/lib/libutils/ext/snprintk.c:537
     644:	f10d 0375 	add.w	r3, sp, #117	; 0x75
     648:	4658      	mov	r0, fp
     64a:	eba3 0b0a 	sub.w	fp, r3, sl
/home/st/Desktop/Raspbian-optee/raspbian-optee/raspbian-tee1/raspbian-tee/optee_os/lib/libutils/ext/snprintk.c:565
     64e:	4558      	cmp	r0, fp
     650:	4603      	mov	r3, r0
     652:	bfb8      	it	lt
     654:	465b      	movlt	r3, fp
/home/st/Desktop/Raspbian-optee/raspbian-optee/raspbian-tee1/raspbian-tee/optee_os/lib/libutils/ext/snprintk.c:566
     656:	f1b9 0f00 	cmp.w	r9, #0
     65a:	f000 8188 	beq.w	96e <__vsnprintf+0x5fa>
/home/st/Desktop/Raspbian-optee/raspbian-optee/raspbian-tee1/raspbian-tee/optee_os/lib/libutils/ext/snprintk.c:567
     65e:	3301      	adds	r3, #1
/home/st/Desktop/Raspbian-optee/raspbian-optee/raspbian-tee1/raspbian-tee/optee_os/lib/libutils/ext/snprintk.c:572
     660:	9a0d      	ldr	r2, [sp, #52]	; 0x34
     662:	990c      	ldr	r1, [sp, #48]	; 0x30
     664:	429a      	cmp	r2, r3
     666:	bfb8      	it	lt
     668:	461a      	movlt	r2, r3
     66a:	4411      	add	r1, r2
     66c:	910c      	str	r1, [sp, #48]	; 0x30
/home/st/Desktop/Raspbian-optee/raspbian-optee/raspbian-tee1/raspbian-tee/optee_os/lib/libutils/ext/snprintk.c:575
     66e:	f240 4104 	movw	r1, #1028	; 0x404
     672:	4031      	ands	r1, r6
     674:	d105      	bne.n	682 <__vsnprintf+0x30e>
/home/st/Desktop/Raspbian-optee/raspbian-optee/raspbian-tee1/raspbian-tee/optee_os/lib/libutils/ext/snprintk.c:576
     676:	9a0d      	ldr	r2, [sp, #52]	; 0x34
/home/st/Desktop/Raspbian-optee/raspbian-optee/raspbian-tee1/raspbian-tee/optee_os/lib/libutils/ext/snprintk.c:578
     678:	2420      	movs	r4, #32
/home/st/Desktop/Raspbian-optee/raspbian-optee/raspbian-tee1/raspbian-tee/optee_os/lib/libutils/ext/snprintk.c:576
     67a:	1ad2      	subs	r2, r2, r3
/home/st/Desktop/Raspbian-optee/raspbian-optee/raspbian-tee1/raspbian-tee/optee_os/lib/libutils/ext/snprintk.c:577
     67c:	2a00      	cmp	r2, #0
     67e:	f300 817a 	bgt.w	976 <__vsnprintf+0x602>
/home/st/Desktop/Raspbian-optee/raspbian-optee/raspbian-tee1/raspbian-tee/optee_os/lib/libutils/ext/snprintk.c:582
     682:	f1b9 0f00 	cmp.w	r9, #0
     686:	f000 8180 	beq.w	98a <__vsnprintf+0x616>
/home/st/Desktop/Raspbian-optee/raspbian-optee/raspbian-tee1/raspbian-tee/optee_os/lib/libutils/ext/snprintk.c:583
     68a:	f1b8 0f00 	cmp.w	r8, #0
     68e:	d004      	beq.n	69a <__vsnprintf+0x326>
     690:	9a0e      	ldr	r2, [sp, #56]	; 0x38
     692:	4542      	cmp	r2, r8
     694:	d901      	bls.n	69a <__vsnprintf+0x326>
     696:	f808 9b01 	strb.w	r9, [r8], #1
/home/st/Desktop/Raspbian-optee/raspbian-optee/raspbian-tee1/raspbian-tee/optee_os/lib/libutils/ext/snprintk.c:590
     69a:	f5b1 6f80 	cmp.w	r1, #1024	; 0x400
     69e:	d105      	bne.n	6ac <__vsnprintf+0x338>
/home/st/Desktop/Raspbian-optee/raspbian-optee/raspbian-tee1/raspbian-tee/optee_os/lib/libutils/ext/snprintk.c:591
     6a0:	9a0d      	ldr	r2, [sp, #52]	; 0x34
/home/st/Desktop/Raspbian-optee/raspbian-optee/raspbian-tee1/raspbian-tee/optee_os/lib/libutils/ext/snprintk.c:593
     6a2:	2130      	movs	r1, #48	; 0x30
/home/st/Desktop/Raspbian-optee/raspbian-optee/raspbian-tee1/raspbian-tee/optee_os/lib/libutils/ext/snprintk.c:591
     6a4:	1ad2      	subs	r2, r2, r3
/home/st/Desktop/Raspbian-optee/raspbian-optee/raspbian-tee1/raspbian-tee/optee_os/lib/libutils/ext/snprintk.c:592
     6a6:	2a00      	cmp	r2, #0
     6a8:	f300 8189 	bgt.w	9be <__vsnprintf+0x64a>
/home/st/Desktop/Raspbian-optee/raspbian-optee/raspbian-tee1/raspbian-tee/optee_os/lib/libutils/ext/snprintk.c:597
     6ac:	eba0 000b 	sub.w	r0, r0, fp
/home/st/Desktop/Raspbian-optee/raspbian-optee/raspbian-tee1/raspbian-tee/optee_os/lib/libutils/ext/snprintk.c:599
     6b0:	2230      	movs	r2, #48	; 0x30
/home/st/Desktop/Raspbian-optee/raspbian-optee/raspbian-tee1/raspbian-tee/optee_os/lib/libutils/ext/snprintk.c:598
     6b2:	2800      	cmp	r0, #0
     6b4:	f300 818d 	bgt.w	9d2 <__vsnprintf+0x65e>
     6b8:	eb0a 000b 	add.w	r0, sl, fp
/home/st/Desktop/Raspbian-optee/raspbian-optee/raspbian-tee1/raspbian-tee/optee_os/lib/libutils/ext/snprintk.c:602
     6bc:	4582      	cmp	sl, r0
     6be:	f040 8192 	bne.w	9e6 <__vsnprintf+0x672>
/home/st/Desktop/Raspbian-optee/raspbian-optee/raspbian-tee1/raspbian-tee/optee_os/lib/libutils/ext/snprintk.c:605
     6c2:	0772      	lsls	r2, r6, #29
     6c4:	f57f ae67 	bpl.w	396 <__vsnprintf+0x22>
/home/st/Desktop/Raspbian-optee/raspbian-optee/raspbian-tee1/raspbian-tee/optee_os/lib/libutils/ext/snprintk.c:606
     6c8:	9a0d      	ldr	r2, [sp, #52]	; 0x34
     6ca:	1ad3      	subs	r3, r2, r3
/home/st/Desktop/Raspbian-optee/raspbian-optee/raspbian-tee1/raspbian-tee/optee_os/lib/libutils/ext/snprintk.c:608
     6cc:	2220      	movs	r2, #32
/home/st/Desktop/Raspbian-optee/raspbian-optee/raspbian-tee1/raspbian-tee/optee_os/lib/libutils/ext/snprintk.c:607
     6ce:	2b00      	cmp	r3, #0
     6d0:	f77f ae61 	ble.w	396 <__vsnprintf+0x22>
/home/st/Desktop/Raspbian-optee/raspbian-optee/raspbian-tee1/raspbian-tee/optee_os/lib/libutils/ext/snprintk.c:608
     6d4:	f1b8 0f00 	cmp.w	r8, #0
     6d8:	d004      	beq.n	6e4 <__vsnprintf+0x370>
     6da:	990e      	ldr	r1, [sp, #56]	; 0x38
     6dc:	4541      	cmp	r1, r8
     6de:	d901      	bls.n	6e4 <__vsnprintf+0x370>
     6e0:	f808 2b01 	strb.w	r2, [r8], #1
     6e4:	3b01      	subs	r3, #1
     6e6:	e7f2      	b.n	6ce <__vsnprintf+0x35a>
/home/st/Desktop/Raspbian-optee/raspbian-optee/raspbian-tee1/raspbian-tee/optee_os/lib/libutils/ext/snprintk.c:384
     6e8:	05f1      	lsls	r1, r6, #23
     6ea:	d504      	bpl.n	6f6 <__vsnprintf+0x382>
     6ec:	461f      	mov	r7, r3
     6ee:	f857 4b04 	ldr.w	r4, [r7], #4
     6f2:	17e5      	asrs	r5, r4, #31
     6f4:	e778      	b.n	5e8 <__vsnprintf+0x274>
     6f6:	05b2      	lsls	r2, r6, #22
     6f8:	d4f8      	bmi.n	6ec <__vsnprintf+0x378>
     6fa:	06b7      	lsls	r7, r6, #26
     6fc:	f53f af6f 	bmi.w	5de <__vsnprintf+0x26a>
     700:	1d1f      	adds	r7, r3, #4
     702:	06f5      	lsls	r5, r6, #27
     704:	d501      	bpl.n	70a <__vsnprintf+0x396>
     706:	681c      	ldr	r4, [r3, #0]
     708:	e7f3      	b.n	6f2 <__vsnprintf+0x37e>
     70a:	681c      	ldr	r4, [r3, #0]
     70c:	f016 0f40 	tst.w	r6, #64	; 0x40
     710:	d0ef      	beq.n	6f2 <__vsnprintf+0x37e>
     712:	b224      	sxth	r4, r4
     714:	e7ed      	b.n	6f2 <__vsnprintf+0x37e>
/home/st/Desktop/Raspbian-optee/raspbian-optee/raspbian-tee1/raspbian-tee/optee_os/lib/libutils/ext/snprintk.c:392
     716:	461f      	mov	r7, r3
     718:	0634      	lsls	r4, r6, #24
     71a:	f857 3b04 	ldr.w	r3, [r7], #4
     71e:	d507      	bpl.n	730 <__vsnprintf+0x3bc>
/home/st/Desktop/Raspbian-optee/raspbian-optee/raspbian-tee1/raspbian-tee/optee_os/lib/libutils/ext/snprintk.c:399
     720:	9a0c      	ldr	r2, [sp, #48]	; 0x30
     722:	ee80 2b90 	vdup.32	d16, r2
     726:	efe0 00b0 	vshr.s64	d16, d16, #32
     72a:	edc3 0b00 	vstr	d16, [r3]
     72e:	e632      	b.n	396 <__vsnprintf+0x22>
/home/st/Desktop/Raspbian-optee/raspbian-optee/raspbian-tee1/raspbian-tee/optee_os/lib/libutils/ext/snprintk.c:394
     730:	05f0      	lsls	r0, r6, #23
     732:	d502      	bpl.n	73a <__vsnprintf+0x3c6>
/home/st/Desktop/Raspbian-optee/raspbian-optee/raspbian-tee1/raspbian-tee/optee_os/lib/libutils/ext/snprintk.c:405
     734:	9a0c      	ldr	r2, [sp, #48]	; 0x30
     736:	601a      	str	r2, [r3, #0]
     738:	e62d      	b.n	396 <__vsnprintf+0x22>
/home/st/Desktop/Raspbian-optee/raspbian-optee/raspbian-tee1/raspbian-tee/optee_os/lib/libutils/ext/snprintk.c:396
     73a:	05b1      	lsls	r1, r6, #22
     73c:	d4fa      	bmi.n	734 <__vsnprintf+0x3c0>
/home/st/Desktop/Raspbian-optee/raspbian-optee/raspbian-tee1/raspbian-tee/optee_os/lib/libutils/ext/snprintk.c:398
     73e:	06b2      	lsls	r2, r6, #26
     740:	d4ee      	bmi.n	720 <__vsnprintf+0x3ac>
/home/st/Desktop/Raspbian-optee/raspbian-optee/raspbian-tee1/raspbian-tee/optee_os/lib/libutils/ext/snprintk.c:400
     742:	06f5      	lsls	r5, r6, #27
     744:	d4f6      	bmi.n	734 <__vsnprintf+0x3c0>
/home/st/Desktop/Raspbian-optee/raspbian-optee/raspbian-tee1/raspbian-tee/optee_os/lib/libutils/ext/snprintk.c:402
     746:	0674      	lsls	r4, r6, #25
     748:	d5f4      	bpl.n	734 <__vsnprintf+0x3c0>
/home/st/Desktop/Raspbian-optee/raspbian-optee/raspbian-tee1/raspbian-tee/optee_os/lib/libutils/ext/snprintk.c:403
     74a:	9a0c      	ldr	r2, [sp, #48]	; 0x30
     74c:	801a      	strh	r2, [r3, #0]
     74e:	e622      	b.n	396 <__vsnprintf+0x22>
/home/st/Desktop/Raspbian-optee/raspbian-optee/raspbian-tee1/raspbian-tee/optee_os/lib/libutils/ext/snprintk.c:408
     750:	f046 0610 	orr.w	r6, r6, #16
/home/st/Desktop/Raspbian-optee/raspbian-optee/raspbian-tee1/raspbian-tee/optee_os/lib/libutils/ext/snprintk.c:411
     754:	0630      	lsls	r0, r6, #24
     756:	d50c      	bpl.n	772 <__vsnprintf+0x3fe>
     758:	1ddf      	adds	r7, r3, #7
     75a:	f027 0707 	bic.w	r7, r7, #7
     75e:	e8f7 4502 	ldrd	r4, r5, [r7], #8
/home/st/Desktop/Raspbian-optee/raspbian-optee/raspbian-tee1/raspbian-tee/optee_os/lib/libutils/ext/snprintk.c:488
     762:	f04f 0900 	mov.w	r9, #0
     766:	f1bb 3fff 	cmp.w	fp, #4294967295	; 0xffffffff
     76a:	f43f af53 	beq.w	614 <__vsnprintf+0x2a0>
     76e:	464b      	mov	r3, r9
     770:	e0ca      	b.n	908 <__vsnprintf+0x594>
/home/st/Desktop/Raspbian-optee/raspbian-optee/raspbian-tee1/raspbian-tee/optee_os/lib/libutils/ext/snprintk.c:411
     772:	05f1      	lsls	r1, r6, #23
     774:	d504      	bpl.n	780 <__vsnprintf+0x40c>
     776:	461f      	mov	r7, r3
     778:	f857 4b04 	ldr.w	r4, [r7], #4
     77c:	2500      	movs	r5, #0
     77e:	e7f0      	b.n	762 <__vsnprintf+0x3ee>
     780:	05b2      	lsls	r2, r6, #22
     782:	d4f8      	bmi.n	776 <__vsnprintf+0x402>
     784:	06b7      	lsls	r7, r6, #26
     786:	d4e7      	bmi.n	758 <__vsnprintf+0x3e4>
     788:	1d1f      	adds	r7, r3, #4
     78a:	06f5      	lsls	r5, r6, #27
     78c:	d501      	bpl.n	792 <__vsnprintf+0x41e>
     78e:	681c      	ldr	r4, [r3, #0]
     790:	e7f4      	b.n	77c <__vsnprintf+0x408>
     792:	0674      	lsls	r4, r6, #25
     794:	d5fb      	bpl.n	78e <__vsnprintf+0x41a>
     796:	881c      	ldrh	r4, [r3, #0]
     798:	e7f0      	b.n	77c <__vsnprintf+0x408>
/home/st/Desktop/Raspbian-optee/raspbian-optee/raspbian-tee1/raspbian-tee/optee_os/lib/libutils/ext/snprintk.c:415
     79a:	461f      	mov	r7, r3
     79c:	9b13      	ldr	r3, [sp, #76]	; 0x4c
     79e:	f857 4b04 	ldr.w	r4, [r7], #4
     7a2:	2b00      	cmp	r3, #0
     7a4:	d029      	beq.n	7fa <__vsnprintf+0x486>
     7a6:	9b0a      	ldr	r3, [sp, #40]	; 0x28
     7a8:	781b      	ldrb	r3, [r3, #0]
     7aa:	2b55      	cmp	r3, #85	; 0x55
     7ac:	d125      	bne.n	7fa <__vsnprintf+0x486>
     7ae:	9b0a      	ldr	r3, [sp, #40]	; 0x28
     7b0:	785b      	ldrb	r3, [r3, #1]
     7b2:	2b6c      	cmp	r3, #108	; 0x6c
     7b4:	d121      	bne.n	7fa <__vsnprintf+0x486>
/home/st/Desktop/Raspbian-optee/raspbian-optee/raspbian-tee1/raspbian-tee/optee_os/lib/libutils/ext/snprintk.c:420
     7b6:	9b0a      	ldr	r3, [sp, #40]	; 0x28
uuid2str():
/home/st/Desktop/Raspbian-optee/raspbian-optee/raspbian-tee1/raspbian-tee/optee_os/lib/libutils/ext/snprintk.c:223
     7b8:	f10d 0a50 	add.w	sl, sp, #80	; 0x50
     7bc:	4a93      	ldr	r2, [pc, #588]	; (a0c <__vsnprintf+0x698>)
     7be:	2125      	movs	r1, #37	; 0x25
kprintf():
/home/st/Desktop/Raspbian-optee/raspbian-optee/raspbian-tee1/raspbian-tee/optee_os/lib/libutils/ext/snprintk.c:420
     7c0:	3302      	adds	r3, #2
     7c2:	930a      	str	r3, [sp, #40]	; 0x28
uuid2str():
/home/st/Desktop/Raspbian-optee/raspbian-optee/raspbian-tee1/raspbian-tee/optee_os/lib/libutils/ext/snprintk.c:223
     7c4:	7be3      	ldrb	r3, [r4, #15]
     7c6:	447a      	add	r2, pc
     7c8:	9309      	str	r3, [sp, #36]	; 0x24
     7ca:	4650      	mov	r0, sl
     7cc:	7ba3      	ldrb	r3, [r4, #14]
     7ce:	9308      	str	r3, [sp, #32]
     7d0:	7b63      	ldrb	r3, [r4, #13]
     7d2:	9307      	str	r3, [sp, #28]
     7d4:	7b23      	ldrb	r3, [r4, #12]
     7d6:	9306      	str	r3, [sp, #24]
     7d8:	7ae3      	ldrb	r3, [r4, #11]
     7da:	9305      	str	r3, [sp, #20]
     7dc:	7aa3      	ldrb	r3, [r4, #10]
     7de:	9304      	str	r3, [sp, #16]
     7e0:	7a63      	ldrb	r3, [r4, #9]
     7e2:	9303      	str	r3, [sp, #12]
     7e4:	7a23      	ldrb	r3, [r4, #8]
     7e6:	9302      	str	r3, [sp, #8]
     7e8:	88e3      	ldrh	r3, [r4, #6]
     7ea:	9301      	str	r3, [sp, #4]
     7ec:	88a3      	ldrh	r3, [r4, #4]
     7ee:	9300      	str	r3, [sp, #0]
     7f0:	6823      	ldr	r3, [r4, #0]
     7f2:	f000 f91a 	bl	a2a <snprintk>
kprintf():
/home/st/Desktop/Raspbian-optee/raspbian-optee/raspbian-tee1/raspbian-tee/optee_os/lib/libutils/ext/snprintk.c:460
     7f6:	4683      	mov	fp, r0
     7f8:	e035      	b.n	866 <__vsnprintf+0x4f2>
/home/st/Desktop/Raspbian-optee/raspbian-optee/raspbian-tee1/raspbian-tee/optee_os/lib/libutils/ext/snprintk.c:437
     7fa:	4b85      	ldr	r3, [pc, #532]	; (a10 <__vsnprintf+0x69c>)
/home/st/Desktop/Raspbian-optee/raspbian-optee/raspbian-tee1/raspbian-tee/optee_os/lib/libutils/ext/snprintk.c:435
     7fc:	2500      	movs	r5, #0
/home/st/Desktop/Raspbian-optee/raspbian-optee/raspbian-tee1/raspbian-tee/optee_os/lib/libutils/ext/snprintk.c:438
     7fe:	f046 0602 	orr.w	r6, r6, #2
/home/st/Desktop/Raspbian-optee/raspbian-optee/raspbian-tee1/raspbian-tee/optee_os/lib/libutils/ext/snprintk.c:437
     802:	447b      	add	r3, pc
     804:	3311      	adds	r3, #17
     806:	930f      	str	r3, [sp, #60]	; 0x3c
/home/st/Desktop/Raspbian-optee/raspbian-optee/raspbian-tee1/raspbian-tee/optee_os/lib/libutils/ext/snprintk.c:439
     808:	2378      	movs	r3, #120	; 0x78
     80a:	930b      	str	r3, [sp, #44]	; 0x2c
/home/st/Desktop/Raspbian-optee/raspbian-optee/raspbian-tee1/raspbian-tee/optee_os/lib/libutils/ext/snprintk.c:488
     80c:	f04f 0900 	mov.w	r9, #0
     810:	f1bb 3fff 	cmp.w	fp, #4294967295	; 0xffffffff
     814:	f040 8085 	bne.w	922 <__vsnprintf+0x5ae>
     818:	f10d 0a75 	add.w	sl, sp, #117	; 0x75
/home/st/Desktop/Raspbian-optee/raspbian-optee/raspbian-tee1/raspbian-tee/optee_os/lib/libutils/ext/snprintk.c:525
     81c:	f004 030f 	and.w	r3, r4, #15
     820:	9a0f      	ldr	r2, [sp, #60]	; 0x3c
/home/st/Desktop/Raspbian-optee/raspbian-optee/raspbian-tee1/raspbian-tee/optee_os/lib/libutils/ext/snprintk.c:526
     822:	0924      	lsrs	r4, r4, #4
     824:	ea44 7405 	orr.w	r4, r4, r5, lsl #28
     828:	092d      	lsrs	r5, r5, #4
/home/st/Desktop/Raspbian-optee/raspbian-optee/raspbian-tee1/raspbian-tee/optee_os/lib/libutils/ext/snprintk.c:525
     82a:	5cd3      	ldrb	r3, [r2, r3]
     82c:	f80a 3d01 	strb.w	r3, [sl, #-1]!
/home/st/Desktop/Raspbian-optee/raspbian-optee/raspbian-tee1/raspbian-tee/optee_os/lib/libutils/ext/snprintk.c:527
     830:	ea54 0305 	orrs.w	r3, r4, r5
     834:	d1f2      	bne.n	81c <__vsnprintf+0x4a8>
     836:	e705      	b.n	644 <__vsnprintf+0x2d0>
/home/st/Desktop/Raspbian-optee/raspbian-optee/raspbian-tee1/raspbian-tee/optee_os/lib/libutils/ext/snprintk.c:442
     838:	461f      	mov	r7, r3
     83a:	f857 ab04 	ldr.w	sl, [r7], #4
     83e:	f1ba 0f00 	cmp.w	sl, #0
     842:	d102      	bne.n	84a <__vsnprintf+0x4d6>
/home/st/Desktop/Raspbian-optee/raspbian-optee/raspbian-tee1/raspbian-tee/optee_os/lib/libutils/ext/snprintk.c:444
     844:	f8df a1cc 	ldr.w	sl, [pc, #460]	; a14 <__vsnprintf+0x6a0>
     848:	44fa      	add	sl, pc
/home/st/Desktop/Raspbian-optee/raspbian-optee/raspbian-tee1/raspbian-tee/optee_os/lib/libutils/ext/snprintk.c:445
     84a:	f1bb 3fff 	cmp.w	fp, #4294967295	; 0xffffffff
     84e:	d00d      	beq.n	86c <__vsnprintf+0x4f8>
/home/st/Desktop/Raspbian-optee/raspbian-optee/raspbian-tee1/raspbian-tee/optee_os/lib/libutils/ext/snprintk.c:451
     850:	465a      	mov	r2, fp
     852:	2100      	movs	r1, #0
     854:	4650      	mov	r0, sl
     856:	f007 f8d0 	bl	79fa <memchr>
/home/st/Desktop/Raspbian-optee/raspbian-optee/raspbian-tee1/raspbian-tee/optee_os/lib/libutils/ext/snprintk.c:453
     85a:	b128      	cbz	r0, 868 <__vsnprintf+0x4f4>
/home/st/Desktop/Raspbian-optee/raspbian-optee/raspbian-tee1/raspbian-tee/optee_os/lib/libutils/ext/snprintk.c:454
     85c:	eba0 000a 	sub.w	r0, r0, sl
     860:	4583      	cmp	fp, r0
     862:	bfa8      	it	ge
     864:	4683      	movge	fp, r0
/home/st/Desktop/Raspbian-optee/raspbian-optee/raspbian-tee1/raspbian-tee/optee_os/lib/libutils/ext/snprintk.c:285
     866:	2000      	movs	r0, #0
/home/st/Desktop/Raspbian-optee/raspbian-optee/raspbian-tee1/raspbian-tee/optee_os/lib/libutils/ext/snprintk.c:461
     868:	4681      	mov	r9, r0
     86a:	e6f0      	b.n	64e <__vsnprintf+0x2da>
/home/st/Desktop/Raspbian-optee/raspbian-optee/raspbian-tee1/raspbian-tee/optee_os/lib/libutils/ext/snprintk.c:460
     86c:	4650      	mov	r0, sl
     86e:	f007 f8d2 	bl	7a16 <strlen>
     872:	e7c0      	b.n	7f6 <__vsnprintf+0x482>
/home/st/Desktop/Raspbian-optee/raspbian-optee/raspbian-tee1/raspbian-tee/optee_os/lib/libutils/ext/snprintk.c:464
     874:	f046 0610 	orr.w	r6, r6, #16
/home/st/Desktop/Raspbian-optee/raspbian-optee/raspbian-tee1/raspbian-tee/optee_os/lib/libutils/ext/snprintk.c:467
     878:	f016 0280 	ands.w	r2, r6, #128	; 0x80
     87c:	d00d      	beq.n	89a <__vsnprintf+0x526>
     87e:	1ddf      	adds	r7, r3, #7
     880:	f027 0707 	bic.w	r7, r7, #7
     884:	e8f7 4502 	ldrd	r4, r5, [r7], #8
/home/st/Desktop/Raspbian-optee/raspbian-optee/raspbian-tee1/raspbian-tee/optee_os/lib/libutils/ext/snprintk.c:482
     888:	f04f 0900 	mov.w	r9, #0
/home/st/Desktop/Raspbian-optee/raspbian-optee/raspbian-tee1/raspbian-tee/optee_os/lib/libutils/ext/snprintk.c:488
     88c:	f1bb 3fff 	cmp.w	fp, #4294967295	; 0xffffffff
     890:	d139      	bne.n	906 <__vsnprintf+0x592>
     892:	f10d 0375 	add.w	r3, sp, #117	; 0x75
     896:	9311      	str	r3, [sp, #68]	; 0x44
     898:	e059      	b.n	94e <__vsnprintf+0x5da>
/home/st/Desktop/Raspbian-optee/raspbian-optee/raspbian-tee1/raspbian-tee/optee_os/lib/libutils/ext/snprintk.c:467
     89a:	f416 7980 	ands.w	r9, r6, #256	; 0x100
     89e:	d004      	beq.n	8aa <__vsnprintf+0x536>
     8a0:	461f      	mov	r7, r3
     8a2:	f857 4b04 	ldr.w	r4, [r7], #4
     8a6:	2500      	movs	r5, #0
     8a8:	e7ee      	b.n	888 <__vsnprintf+0x514>
     8aa:	f416 7200 	ands.w	r2, r6, #512	; 0x200
     8ae:	d004      	beq.n	8ba <__vsnprintf+0x546>
     8b0:	461f      	mov	r7, r3
     8b2:	f857 4b04 	ldr.w	r4, [r7], #4
     8b6:	2500      	movs	r5, #0
     8b8:	e7e8      	b.n	88c <__vsnprintf+0x518>
     8ba:	f016 0920 	ands.w	r9, r6, #32
     8be:	d1de      	bne.n	87e <__vsnprintf+0x50a>
     8c0:	1d1f      	adds	r7, r3, #4
     8c2:	f016 0210 	ands.w	r2, r6, #16
     8c6:	d001      	beq.n	8cc <__vsnprintf+0x558>
     8c8:	681c      	ldr	r4, [r3, #0]
     8ca:	e7f4      	b.n	8b6 <__vsnprintf+0x542>
     8cc:	f016 0940 	ands.w	r9, r6, #64	; 0x40
     8d0:	d0fa      	beq.n	8c8 <__vsnprintf+0x554>
     8d2:	881c      	ldrh	r4, [r3, #0]
     8d4:	e7e7      	b.n	8a6 <__vsnprintf+0x532>
/home/st/Desktop/Raspbian-optee/raspbian-optee/raspbian-tee1/raspbian-tee/optee_os/lib/libutils/ext/snprintk.c:471
     8d6:	4a50      	ldr	r2, [pc, #320]	; (a18 <__vsnprintf+0x6a4>)
     8d8:	447a      	add	r2, pc
     8da:	e5f2      	b.n	4c2 <__vsnprintf+0x14e>
/home/st/Desktop/Raspbian-optee/raspbian-optee/raspbian-tee1/raspbian-tee/optee_os/lib/libutils/ext/snprintk.c:475
     8dc:	05f1      	lsls	r1, r6, #23
     8de:	d504      	bpl.n	8ea <__vsnprintf+0x576>
     8e0:	461f      	mov	r7, r3
     8e2:	f857 4b04 	ldr.w	r4, [r7], #4
     8e6:	2500      	movs	r5, #0
     8e8:	e5f4      	b.n	4d4 <__vsnprintf+0x160>
     8ea:	05b2      	lsls	r2, r6, #22
     8ec:	d4f8      	bmi.n	8e0 <__vsnprintf+0x56c>
     8ee:	06b7      	lsls	r7, r6, #26
     8f0:	f53f adeb 	bmi.w	4ca <__vsnprintf+0x156>
     8f4:	1d1f      	adds	r7, r3, #4
     8f6:	06f5      	lsls	r5, r6, #27
     8f8:	d501      	bpl.n	8fe <__vsnprintf+0x58a>
     8fa:	681c      	ldr	r4, [r3, #0]
     8fc:	e7f3      	b.n	8e6 <__vsnprintf+0x572>
     8fe:	0674      	lsls	r4, r6, #25
     900:	d5fb      	bpl.n	8fa <__vsnprintf+0x586>
     902:	881c      	ldrh	r4, [r3, #0]
     904:	e7ef      	b.n	8e6 <__vsnprintf+0x572>
/home/st/Desktop/Raspbian-optee/raspbian-optee/raspbian-tee1/raspbian-tee/optee_os/lib/libutils/ext/snprintk.c:488
     906:	2301      	movs	r3, #1
/home/st/Desktop/Raspbian-optee/raspbian-optee/raspbian-tee1/raspbian-tee/optee_os/lib/libutils/ext/snprintk.c:489
     908:	f426 6680 	bic.w	r6, r6, #1024	; 0x400
/home/st/Desktop/Raspbian-optee/raspbian-optee/raspbian-tee1/raspbian-tee/optee_os/lib/libutils/ext/snprintk.c:497
     90c:	ea54 0205 	orrs.w	r2, r4, r5
     910:	f47f ae7a 	bne.w	608 <__vsnprintf+0x294>
     914:	f1bb 0f00 	cmp.w	fp, #0
     918:	f47f ae76 	bne.w	608 <__vsnprintf+0x294>
/home/st/Desktop/Raspbian-optee/raspbian-optee/raspbian-tee1/raspbian-tee/optee_os/lib/libutils/ext/snprintk.c:496
     91c:	f10d 0a75 	add.w	sl, sp, #117	; 0x75
     920:	e690      	b.n	644 <__vsnprintf+0x2d0>
/home/st/Desktop/Raspbian-optee/raspbian-optee/raspbian-tee1/raspbian-tee/optee_os/lib/libutils/ext/snprintk.c:488
     922:	2302      	movs	r3, #2
     924:	e7f0      	b.n	908 <__vsnprintf+0x594>
/home/st/Desktop/Raspbian-optee/raspbian-optee/raspbian-tee1/raspbian-tee/optee_os/lib/libutils/ext/snprintk.c:517
     926:	4620      	mov	r0, r4
     928:	4629      	mov	r1, r5
     92a:	220a      	movs	r2, #10
     92c:	2300      	movs	r3, #0
     92e:	f000 e94e 	blx	bcc <__aeabi_uldivmod>
     932:	9b11      	ldr	r3, [sp, #68]	; 0x44
     934:	3230      	adds	r2, #48	; 0x30
/home/st/Desktop/Raspbian-optee/raspbian-optee/raspbian-tee1/raspbian-tee/optee_os/lib/libutils/ext/snprintk.c:518
     936:	4620      	mov	r0, r4
     938:	4629      	mov	r1, r5
/home/st/Desktop/Raspbian-optee/raspbian-optee/raspbian-tee1/raspbian-tee/optee_os/lib/libutils/ext/snprintk.c:517
     93a:	f803 2c01 	strb.w	r2, [r3, #-1]
/home/st/Desktop/Raspbian-optee/raspbian-optee/raspbian-tee1/raspbian-tee/optee_os/lib/libutils/ext/snprintk.c:518
     93e:	220a      	movs	r2, #10
     940:	2300      	movs	r3, #0
     942:	f000 e944 	blx	bcc <__aeabi_uldivmod>
     946:	4604      	mov	r4, r0
     948:	460d      	mov	r5, r1
     94a:	f8cd a044 	str.w	sl, [sp, #68]	; 0x44
/home/st/Desktop/Raspbian-optee/raspbian-optee/raspbian-tee1/raspbian-tee/optee_os/lib/libutils/ext/snprintk.c:516
     94e:	9b11      	ldr	r3, [sp, #68]	; 0x44
     950:	2d00      	cmp	r5, #0
     952:	bf08      	it	eq
     954:	2c0a      	cmpeq	r4, #10
     956:	f103 3aff 	add.w	sl, r3, #4294967295	; 0xffffffff
     95a:	d2e4      	bcs.n	926 <__vsnprintf+0x5b2>
/home/st/Desktop/Raspbian-optee/raspbian-optee/raspbian-tee1/raspbian-tee/optee_os/lib/libutils/ext/snprintk.c:520
     95c:	3430      	adds	r4, #48	; 0x30
     95e:	f803 4c01 	strb.w	r4, [r3, #-1]
/home/st/Desktop/Raspbian-optee/raspbian-optee/raspbian-tee1/raspbian-tee/optee_os/lib/libutils/ext/snprintk.c:521
     962:	e66f      	b.n	644 <__vsnprintf+0x2d0>
/home/st/Desktop/Raspbian-optee/raspbian-optee/raspbian-tee1/raspbian-tee/optee_os/lib/libutils/ext/snprintk.c:541
     964:	9a0b      	ldr	r2, [sp, #44]	; 0x2c
     966:	2a00      	cmp	r2, #0
     968:	f47f adc4 	bne.w	4f4 <__vsnprintf+0x180>
     96c:	e518      	b.n	3a0 <__vsnprintf+0x2c>
/home/st/Desktop/Raspbian-optee/raspbian-optee/raspbian-tee1/raspbian-tee/optee_os/lib/libutils/ext/snprintk.c:568
     96e:	07b5      	lsls	r5, r6, #30
/home/st/Desktop/Raspbian-optee/raspbian-optee/raspbian-tee1/raspbian-tee/optee_os/lib/libutils/ext/snprintk.c:569
     970:	bf48      	it	mi
     972:	3302      	addmi	r3, #2
     974:	e674      	b.n	660 <__vsnprintf+0x2ec>
/home/st/Desktop/Raspbian-optee/raspbian-optee/raspbian-tee1/raspbian-tee/optee_os/lib/libutils/ext/snprintk.c:578
     976:	f1b8 0f00 	cmp.w	r8, #0
     97a:	d004      	beq.n	986 <__vsnprintf+0x612>
     97c:	9d0e      	ldr	r5, [sp, #56]	; 0x38
     97e:	4545      	cmp	r5, r8
     980:	d901      	bls.n	986 <__vsnprintf+0x612>
     982:	f808 4b01 	strb.w	r4, [r8], #1
     986:	3a01      	subs	r2, #1
     988:	e678      	b.n	67c <__vsnprintf+0x308>
/home/st/Desktop/Raspbian-optee/raspbian-optee/raspbian-tee1/raspbian-tee/optee_os/lib/libutils/ext/snprintk.c:584
     98a:	07b4      	lsls	r4, r6, #30
     98c:	f57f ae85 	bpl.w	69a <__vsnprintf+0x326>
/home/st/Desktop/Raspbian-optee/raspbian-optee/raspbian-tee1/raspbian-tee/optee_os/lib/libutils/ext/snprintk.c:585
     990:	f1b8 0f00 	cmp.w	r8, #0
     994:	f43f ae81 	beq.w	69a <__vsnprintf+0x326>
     998:	9a0e      	ldr	r2, [sp, #56]	; 0x38
     99a:	4542      	cmp	r2, r8
     99c:	f67f ae7d 	bls.w	69a <__vsnprintf+0x326>
     9a0:	4642      	mov	r2, r8
     9a2:	2430      	movs	r4, #48	; 0x30
     9a4:	f802 4b01 	strb.w	r4, [r2], #1
/home/st/Desktop/Raspbian-optee/raspbian-optee/raspbian-tee1/raspbian-tee/optee_os/lib/libutils/ext/snprintk.c:586
     9a8:	9c0e      	ldr	r4, [sp, #56]	; 0x38
     9aa:	4294      	cmp	r4, r2
     9ac:	d905      	bls.n	9ba <__vsnprintf+0x646>
     9ae:	9a0b      	ldr	r2, [sp, #44]	; 0x2c
     9b0:	f108 0802 	add.w	r8, r8, #2
     9b4:	f808 2c01 	strb.w	r2, [r8, #-1]
     9b8:	e66f      	b.n	69a <__vsnprintf+0x326>
     9ba:	4690      	mov	r8, r2
     9bc:	e66d      	b.n	69a <__vsnprintf+0x326>
/home/st/Desktop/Raspbian-optee/raspbian-optee/raspbian-tee1/raspbian-tee/optee_os/lib/libutils/ext/snprintk.c:593
     9be:	f1b8 0f00 	cmp.w	r8, #0
     9c2:	d004      	beq.n	9ce <__vsnprintf+0x65a>
     9c4:	9c0e      	ldr	r4, [sp, #56]	; 0x38
     9c6:	4544      	cmp	r4, r8
     9c8:	d901      	bls.n	9ce <__vsnprintf+0x65a>
     9ca:	f808 1b01 	strb.w	r1, [r8], #1
     9ce:	3a01      	subs	r2, #1
     9d0:	e669      	b.n	6a6 <__vsnprintf+0x332>
/home/st/Desktop/Raspbian-optee/raspbian-optee/raspbian-tee1/raspbian-tee/optee_os/lib/libutils/ext/snprintk.c:599
     9d2:	f1b8 0f00 	cmp.w	r8, #0
     9d6:	d004      	beq.n	9e2 <__vsnprintf+0x66e>
     9d8:	990e      	ldr	r1, [sp, #56]	; 0x38
     9da:	4541      	cmp	r1, r8
     9dc:	d901      	bls.n	9e2 <__vsnprintf+0x66e>
     9de:	f808 2b01 	strb.w	r2, [r8], #1
     9e2:	3801      	subs	r0, #1
     9e4:	e665      	b.n	6b2 <__vsnprintf+0x33e>
/home/st/Desktop/Raspbian-optee/raspbian-optee/raspbian-tee1/raspbian-tee/optee_os/lib/libutils/ext/snprintk.c:603
     9e6:	f1b8 0f00 	cmp.w	r8, #0
     9ea:	d006      	beq.n	9fa <__vsnprintf+0x686>
     9ec:	9a0e      	ldr	r2, [sp, #56]	; 0x38
     9ee:	4542      	cmp	r2, r8
     9f0:	d903      	bls.n	9fa <__vsnprintf+0x686>
     9f2:	f89a 2000 	ldrb.w	r2, [sl]
     9f6:	f808 2b01 	strb.w	r2, [r8], #1
/home/st/Desktop/Raspbian-optee/raspbian-optee/raspbian-tee1/raspbian-tee/optee_os/lib/libutils/ext/snprintk.c:602
     9fa:	f10a 0a01 	add.w	sl, sl, #1
     9fe:	e65d      	b.n	6bc <__vsnprintf+0x348>
__vsnprintf():
/home/st/Desktop/Raspbian-optee/raspbian-optee/raspbian-tee1/raspbian-tee/optee_os/lib/libutils/ext/snprintk.c:148
     a00:	990c      	ldr	r1, [sp, #48]	; 0x30
     a02:	5453      	strb	r3, [r2, r1]
/home/st/Desktop/Raspbian-optee/raspbian-optee/raspbian-tee1/raspbian-tee/optee_os/lib/libutils/ext/snprintk.c:150
     a04:	e4dc      	b.n	3c0 <__vsnprintf+0x4c>
     a06:	bf00      	nop
     a08:	00007d9f 	.word	0x00007d9f
     a0c:	00007a66 	.word	0x00007a66
     a10:	00007a5b 	.word	0x00007a5b
     a14:	000079dd 	.word	0x000079dd
     a18:	00007985 	.word	0x00007985

00000a1c <vsnprintk>:
vsnprintk():
/home/st/Desktop/Raspbian-optee/raspbian-optee/raspbian-tee1/raspbian-tee/optee_os/lib/libutils/ext/snprintk.c:129
     a1c:	b513      	push	{r0, r1, r4, lr}
/home/st/Desktop/Raspbian-optee/raspbian-optee/raspbian-tee1/raspbian-tee/optee_os/lib/libutils/ext/snprintk.c:130
     a1e:	2401      	movs	r4, #1
     a20:	9400      	str	r4, [sp, #0]
     a22:	f7ff fca7 	bl	374 <__vsnprintf>
/home/st/Desktop/Raspbian-optee/raspbian-optee/raspbian-tee1/raspbian-tee/optee_os/lib/libutils/ext/snprintk.c:131
     a26:	b002      	add	sp, #8
     a28:	bd10      	pop	{r4, pc}

00000a2a <snprintk>:
snprintk():
/home/st/Desktop/Raspbian-optee/raspbian-optee/raspbian-tee1/raspbian-tee/optee_os/lib/libutils/ext/snprintk.c:112
     a2a:	b40c      	push	{r2, r3}
     a2c:	b507      	push	{r0, r1, r2, lr}
     a2e:	ab04      	add	r3, sp, #16
     a30:	f853 2b04 	ldr.w	r2, [r3], #4
/home/st/Desktop/Raspbian-optee/raspbian-optee/raspbian-tee1/raspbian-tee/optee_os/lib/libutils/ext/snprintk.c:116
     a34:	9301      	str	r3, [sp, #4]
/home/st/Desktop/Raspbian-optee/raspbian-optee/raspbian-tee1/raspbian-tee/optee_os/lib/libutils/ext/snprintk.c:117
     a36:	f7ff fff1 	bl	a1c <vsnprintk>
/home/st/Desktop/Raspbian-optee/raspbian-optee/raspbian-tee1/raspbian-tee/optee_os/lib/libutils/ext/snprintk.c:121
     a3a:	b003      	add	sp, #12
     a3c:	f85d eb04 	ldr.w	lr, [sp], #4
     a40:	b002      	add	sp, #8
     a42:	4770      	bx	lr

00000a44 <trace_set_level>:
trace_set_level():
/home/st/Desktop/Raspbian-optee/raspbian-optee/raspbian-tee1/raspbian-tee/optee_os/lib/libutils/ext/trace.c:25
     a44:	4b04      	ldr	r3, [pc, #16]	; (a58 <trace_set_level+0x14>)
/home/st/Desktop/Raspbian-optee/raspbian-optee/raspbian-tee1/raspbian-tee/optee_os/lib/libutils/ext/trace.c:29
     a46:	2804      	cmp	r0, #4
     a48:	4a04      	ldr	r2, [pc, #16]	; (a5c <trace_set_level+0x18>)
     a4a:	bf28      	it	cs
     a4c:	2004      	movcs	r0, #4
/home/st/Desktop/Raspbian-optee/raspbian-optee/raspbian-tee1/raspbian-tee/optee_os/lib/libutils/ext/trace.c:25
     a4e:	447b      	add	r3, pc
     a50:	589b      	ldr	r3, [r3, r2]
     a52:	6018      	str	r0, [r3, #0]
/home/st/Desktop/Raspbian-optee/raspbian-optee/raspbian-tee1/raspbian-tee/optee_os/lib/libutils/ext/trace.c:30
     a54:	4770      	bx	lr
     a56:	bf00      	nop
     a58:	00008b72 	.word	0x00008b72
     a5c:	00000010 	.word	0x00000010

00000a60 <trace_get_level>:
trace_get_level():
/home/st/Desktop/Raspbian-optee/raspbian-optee/raspbian-tee1/raspbian-tee/optee_os/lib/libutils/ext/trace.c:33
     a60:	4b02      	ldr	r3, [pc, #8]	; (a6c <trace_get_level+0xc>)
/home/st/Desktop/Raspbian-optee/raspbian-optee/raspbian-tee1/raspbian-tee/optee_os/lib/libutils/ext/trace.c:34
     a62:	4a03      	ldr	r2, [pc, #12]	; (a70 <trace_get_level+0x10>)
/home/st/Desktop/Raspbian-optee/raspbian-optee/raspbian-tee1/raspbian-tee/optee_os/lib/libutils/ext/trace.c:33
     a64:	447b      	add	r3, pc
/home/st/Desktop/Raspbian-optee/raspbian-optee/raspbian-tee1/raspbian-tee/optee_os/lib/libutils/ext/trace.c:34
     a66:	589b      	ldr	r3, [r3, r2]
/home/st/Desktop/Raspbian-optee/raspbian-optee/raspbian-tee1/raspbian-tee/optee_os/lib/libutils/ext/trace.c:35
     a68:	6818      	ldr	r0, [r3, #0]
     a6a:	4770      	bx	lr
     a6c:	00008b5c 	.word	0x00008b5c
     a70:	00000010 	.word	0x00000010

00000a74 <trace_printf>:
trace_printf():
/home/st/Desktop/Raspbian-optee/raspbian-optee/raspbian-tee1/raspbian-tee/optee_os/lib/libutils/ext/trace.c:97
     a74:	e92d 4ff0 	stmdb	sp!, {r4, r5, r6, r7, r8, r9, sl, fp, lr}
     a78:	4607      	mov	r7, r0
     a7a:	f8df b10c 	ldr.w	fp, [pc, #268]	; b88 <trace_printf+0x114>
     a7e:	b0c7      	sub	sp, #284	; 0x11c
     a80:	4688      	mov	r8, r1
     a82:	44fb      	add	fp, pc
     a84:	4614      	mov	r4, r2
/home/st/Desktop/Raspbian-optee/raspbian-optee/raspbian-tee1/raspbian-tee/optee_os/lib/libutils/ext/trace.c:103
     a86:	469a      	mov	sl, r3
     a88:	2b00      	cmp	r3, #0
     a8a:	d06a      	beq.n	b62 <trace_printf+0xee>
/home/st/Desktop/Raspbian-optee/raspbian-optee/raspbian-tee1/raspbian-tee/optee_os/lib/libutils/ext/trace.c:103 (discriminator 1)
     a8c:	4b3f      	ldr	r3, [pc, #252]	; (b8c <trace_printf+0x118>)
     a8e:	f85b 3003 	ldr.w	r3, [fp, r3]
     a92:	681b      	ldr	r3, [r3, #0]
     a94:	4293      	cmp	r3, r2
     a96:	db61      	blt.n	b5c <trace_printf+0xe8>
trace_level_to_string():
/home/st/Desktop/Raspbian-optee/raspbian-optee/raspbian-tee1/raspbian-tee/optee_os/lib/libutils/ext/trace.c:52
     a98:	4613      	mov	r3, r2
     a9a:	2a04      	cmp	r2, #4
/home/st/Desktop/Raspbian-optee/raspbian-optee/raspbian-tee1/raspbian-tee/optee_os/lib/libutils/ext/trace.c:55
     a9c:	4a3c      	ldr	r2, [pc, #240]	; (b90 <trace_printf+0x11c>)
/home/st/Desktop/Raspbian-optee/raspbian-optee/raspbian-tee1/raspbian-tee/optee_os/lib/libutils/ext/trace.c:52
     a9e:	bf88      	it	hi
     aa0:	2300      	movhi	r3, #0
/home/st/Desktop/Raspbian-optee/raspbian-optee/raspbian-tee1/raspbian-tee/optee_os/lib/libutils/ext/trace.c:55
     aa2:	447a      	add	r2, pc
     aa4:	5cd3      	ldrb	r3, [r2, r3]
trace_printf():
/home/st/Desktop/Raspbian-optee/raspbian-optee/raspbian-tee1/raspbian-tee/optee_os/lib/libutils/ext/trace.c:107
     aa6:	4a3b      	ldr	r2, [pc, #236]	; (b94 <trace_printf+0x120>)
     aa8:	ad06      	add	r5, sp, #24
     aaa:	f44f 7180 	mov.w	r1, #256	; 0x100
     aae:	4628      	mov	r0, r5
     ab0:	447a      	add	r2, pc
     ab2:	f7ff ffba 	bl	a2a <snprintk>
/home/st/Desktop/Raspbian-optee/raspbian-optee/raspbian-tee1/raspbian-tee/optee_os/lib/libutils/ext/trace.c:109
     ab6:	1e06      	subs	r6, r0, #0
     ab8:	db50      	blt.n	b5c <trace_printf+0xe8>
/home/st/Desktop/Raspbian-optee/raspbian-optee/raspbian-tee1/raspbian-tee/optee_os/lib/libutils/ext/trace.c:114
     aba:	4b37      	ldr	r3, [pc, #220]	; (b98 <trace_printf+0x124>)
     abc:	f5c6 7180 	rsb	r1, r6, #256	; 0x100
     ac0:	4a36      	ldr	r2, [pc, #216]	; (b9c <trace_printf+0x128>)
     ac2:	19a8      	adds	r0, r5, r6
     ac4:	447a      	add	r2, pc
     ac6:	f85b 3003 	ldr.w	r3, [fp, r3]
     aca:	9303      	str	r3, [sp, #12]
     acc:	f7ff ffad 	bl	a2a <snprintk>
/home/st/Desktop/Raspbian-optee/raspbian-optee/raspbian-tee1/raspbian-tee/optee_os/lib/libutils/ext/trace.c:116
     ad0:	2800      	cmp	r0, #0
     ad2:	db43      	blt.n	b5c <trace_printf+0xe8>
/home/st/Desktop/Raspbian-optee/raspbian-optee/raspbian-tee1/raspbian-tee/optee_os/lib/libutils/ext/trace.c:118
     ad4:	4406      	add	r6, r0
/home/st/Desktop/Raspbian-optee/raspbian-optee/raspbian-tee1/raspbian-tee/optee_os/lib/libutils/ext/trace.c:120
     ad6:	f1ba 0f00 	cmp.w	sl, #0
     ada:	d04b      	beq.n	b74 <trace_printf+0x100>
/home/st/Desktop/Raspbian-optee/raspbian-optee/raspbian-tee1/raspbian-tee/optee_os/lib/libutils/ext/trace.c:120 (discriminator 1)
     adc:	221a      	movs	r2, #26
     ade:	fa22 f404 	lsr.w	r4, r2, r4
     ae2:	07e3      	lsls	r3, r4, #31
     ae4:	d546      	bpl.n	b74 <trace_printf+0x100>
print_thread_id():
/home/st/Desktop/Raspbian-optee/raspbian-optee/raspbian-tee1/raspbian-tee/optee_os/lib/libutils/ext/trace.c:65
     ae6:	f000 f887 	bl	bf8 <trace_ext_get_thread_id>
trace_printf():
/home/st/Desktop/Raspbian-optee/raspbian-optee/raspbian-tee1/raspbian-tee/optee_os/lib/libutils/ext/trace.c:122
     aea:	19ac      	adds	r4, r5, r6
     aec:	f5c6 7980 	rsb	r9, r6, #256	; 0x100
print_thread_id():
/home/st/Desktop/Raspbian-optee/raspbian-optee/raspbian-tee1/raspbian-tee/optee_os/lib/libutils/ext/trace.c:67
     af0:	2800      	cmp	r0, #0
     af2:	db38      	blt.n	b66 <trace_printf+0xf2>
/home/st/Desktop/Raspbian-optee/raspbian-optee/raspbian-tee1/raspbian-tee/optee_os/lib/libutils/ext/trace.c:68
     af4:	4a2a      	ldr	r2, [pc, #168]	; (ba0 <trace_printf+0x12c>)
     af6:	2301      	movs	r3, #1
     af8:	9000      	str	r0, [sp, #0]
     afa:	447a      	add	r2, pc
/home/st/Desktop/Raspbian-optee/raspbian-optee/raspbian-tee1/raspbian-tee/optee_os/lib/libutils/ext/trace.c:70
     afc:	4649      	mov	r1, r9
     afe:	4620      	mov	r0, r4
     b00:	f7ff ff93 	bl	a2a <snprintk>
trace_printf():
/home/st/Desktop/Raspbian-optee/raspbian-optee/raspbian-tee1/raspbian-tee/optee_os/lib/libutils/ext/trace.c:129
     b04:	2800      	cmp	r0, #0
     b06:	db29      	blt.n	b5c <trace_printf+0xe8>
/home/st/Desktop/Raspbian-optee/raspbian-optee/raspbian-tee1/raspbian-tee/optee_os/lib/libutils/ext/trace.c:131
     b08:	1984      	adds	r4, r0, r6
/home/st/Desktop/Raspbian-optee/raspbian-optee/raspbian-tee1/raspbian-tee/optee_os/lib/libutils/ext/trace.c:133
     b0a:	b167      	cbz	r7, b26 <trace_printf+0xb2>
/home/st/Desktop/Raspbian-optee/raspbian-optee/raspbian-tee1/raspbian-tee/optee_os/lib/libutils/ext/trace.c:134
     b0c:	4a25      	ldr	r2, [pc, #148]	; (ba4 <trace_printf+0x130>)
     b0e:	463b      	mov	r3, r7
     b10:	f5c4 7180 	rsb	r1, r4, #256	; 0x100
     b14:	1928      	adds	r0, r5, r4
     b16:	447a      	add	r2, pc
     b18:	f8cd 8000 	str.w	r8, [sp]
     b1c:	f7ff ff85 	bl	a2a <snprintk>
/home/st/Desktop/Raspbian-optee/raspbian-optee/raspbian-tee1/raspbian-tee/optee_os/lib/libutils/ext/trace.c:136
     b20:	2800      	cmp	r0, #0
     b22:	db1b      	blt.n	b5c <trace_printf+0xe8>
/home/st/Desktop/Raspbian-optee/raspbian-optee/raspbian-tee1/raspbian-tee/optee_os/lib/libutils/ext/trace.c:138
     b24:	4404      	add	r4, r0
/home/st/Desktop/Raspbian-optee/raspbian-optee/raspbian-tee1/raspbian-tee/optee_os/lib/libutils/ext/trace.c:148
     b26:	ab51      	add	r3, sp, #324	; 0x144
/home/st/Desktop/Raspbian-optee/raspbian-optee/raspbian-tee1/raspbian-tee/optee_os/lib/libutils/ext/trace.c:149
     b28:	f5c4 7180 	rsb	r1, r4, #256	; 0x100
     b2c:	1928      	adds	r0, r5, r4
     b2e:	9a50      	ldr	r2, [sp, #320]	; 0x140
/home/st/Desktop/Raspbian-optee/raspbian-optee/raspbian-tee1/raspbian-tee/optee_os/lib/libutils/ext/trace.c:148
     b30:	9305      	str	r3, [sp, #20]
/home/st/Desktop/Raspbian-optee/raspbian-optee/raspbian-tee1/raspbian-tee/optee_os/lib/libutils/ext/trace.c:149
     b32:	f7ff ff73 	bl	a1c <vsnprintk>
/home/st/Desktop/Raspbian-optee/raspbian-optee/raspbian-tee1/raspbian-tee/optee_os/lib/libutils/ext/trace.c:151
     b36:	2800      	cmp	r0, #0
/home/st/Desktop/Raspbian-optee/raspbian-optee/raspbian-tee1/raspbian-tee/optee_os/lib/libutils/ext/trace.c:157
     b38:	f04f 030a 	mov.w	r3, #10
/home/st/Desktop/Raspbian-optee/raspbian-optee/raspbian-tee1/raspbian-tee/optee_os/lib/libutils/ext/trace.c:152
     b3c:	bfc8      	it	gt
     b3e:	1824      	addgt	r4, r4, r0
/home/st/Desktop/Raspbian-optee/raspbian-optee/raspbian-tee1/raspbian-tee/optee_os/lib/libutils/ext/trace.c:154
     b40:	2cfe      	cmp	r4, #254	; 0xfe
     b42:	bf28      	it	cs
     b44:	24fe      	movcs	r4, #254	; 0xfe
/home/st/Desktop/Raspbian-optee/raspbian-optee/raspbian-tee1/raspbian-tee/optee_os/lib/libutils/ext/trace.c:157
     b46:	552b      	strb	r3, [r5, r4]
/home/st/Desktop/Raspbian-optee/raspbian-optee/raspbian-tee1/raspbian-tee/optee_os/lib/libutils/ext/trace.c:158
     b48:	b114      	cbz	r4, b50 <trace_printf+0xdc>
/home/st/Desktop/Raspbian-optee/raspbian-optee/raspbian-tee1/raspbian-tee/optee_os/lib/libutils/ext/trace.c:158 (discriminator 1)
     b4a:	5d2b      	ldrb	r3, [r5, r4]
     b4c:	2b0a      	cmp	r3, #10
     b4e:	d019      	beq.n	b84 <trace_printf+0x110>
/home/st/Desktop/Raspbian-optee/raspbian-optee/raspbian-tee1/raspbian-tee/optee_os/lib/libutils/ext/trace.c:161
     b50:	442c      	add	r4, r5
/home/st/Desktop/Raspbian-optee/raspbian-optee/raspbian-tee1/raspbian-tee/optee_os/lib/libutils/ext/trace.c:163
     b52:	4628      	mov	r0, r5
/home/st/Desktop/Raspbian-optee/raspbian-optee/raspbian-tee1/raspbian-tee/optee_os/lib/libutils/ext/trace.c:161
     b54:	2300      	movs	r3, #0
     b56:	70a3      	strb	r3, [r4, #2]
/home/st/Desktop/Raspbian-optee/raspbian-optee/raspbian-tee1/raspbian-tee/optee_os/lib/libutils/ext/trace.c:163
     b58:	f000 f844 	bl	be4 <trace_ext_puts>
/home/st/Desktop/Raspbian-optee/raspbian-optee/raspbian-tee1/raspbian-tee/optee_os/lib/libutils/ext/trace.c:164
     b5c:	b047      	add	sp, #284	; 0x11c
     b5e:	e8bd 8ff0 	ldmia.w	sp!, {r4, r5, r6, r7, r8, r9, sl, fp, pc}
trace_level_to_string():
/home/st/Desktop/Raspbian-optee/raspbian-optee/raspbian-tee1/raspbian-tee/optee_os/lib/libutils/ext/trace.c:50
     b62:	234d      	movs	r3, #77	; 0x4d
     b64:	e79f      	b.n	aa6 <trace_printf+0x32>
print_thread_id():
/home/st/Desktop/Raspbian-optee/raspbian-optee/raspbian-tee1/raspbian-tee/optee_os/lib/libutils/ext/trace.c:70
     b66:	4b10      	ldr	r3, [pc, #64]	; (ba8 <trace_printf+0x134>)
     b68:	4a10      	ldr	r2, [pc, #64]	; (bac <trace_printf+0x138>)
     b6a:	447b      	add	r3, pc
     b6c:	9300      	str	r3, [sp, #0]
     b6e:	447a      	add	r2, pc
     b70:	2301      	movs	r3, #1
     b72:	e7c3      	b.n	afc <trace_printf+0x88>
trace_printf():
/home/st/Desktop/Raspbian-optee/raspbian-optee/raspbian-tee1/raspbian-tee/optee_os/lib/libutils/ext/trace.c:142
     b74:	2efe      	cmp	r6, #254	; 0xfe
     b76:	d8f1      	bhi.n	b5c <trace_printf+0xe8>
/home/st/Desktop/Raspbian-optee/raspbian-optee/raspbian-tee1/raspbian-tee/optee_os/lib/libutils/ext/trace.c:144
     b78:	1c74      	adds	r4, r6, #1
     b7a:	2320      	movs	r3, #32
     b7c:	55ab      	strb	r3, [r5, r6]
/home/st/Desktop/Raspbian-optee/raspbian-optee/raspbian-tee1/raspbian-tee/optee_os/lib/libutils/ext/trace.c:145
     b7e:	2300      	movs	r3, #0
     b80:	552b      	strb	r3, [r5, r4]
     b82:	e7d0      	b.n	b26 <trace_printf+0xb2>
/home/st/Desktop/Raspbian-optee/raspbian-optee/raspbian-tee1/raspbian-tee/optee_os/lib/libutils/ext/trace.c:159
     b84:	3c01      	subs	r4, #1
     b86:	e7df      	b.n	b48 <trace_printf+0xd4>
     b88:	00008b3e 	.word	0x00008b3e
     b8c:	00000010 	.word	0x00000010
     b90:	000077f7 	.word	0x000077f7
     b94:	000077cf 	.word	0x000077cf
     b98:	00000018 	.word	0x00000018
     b9c:	000077bf 	.word	0x000077bf
     ba0:	0000778d 	.word	0x0000778d
     ba4:	0000777c 	.word	0x0000777c
     ba8:	00007da6 	.word	0x00007da6
     bac:	0000771f 	.word	0x0000771f

00000bb0 <dhex_dump>:
dhex_dump():
/home/st/Desktop/Raspbian-optee/raspbian-optee/raspbian-tee1/raspbian-tee/optee_os/lib/libutils/ext/trace.c:276
     bb0:	4770      	bx	lr
     bb2:	bf00      	nop

00000bb4 <__aeabi_ldivmod>:
__aeabi_ldivmod():
/home/st/Desktop/Raspbian-optee/raspbian-optee/raspbian-tee1/raspbian-tee/optee_os/lib/libutils/isoc/arch/arm/arm32_aeabi_ldivmod_a32.S:24
     bb4:	e92d5000 	push	{ip, lr}
/home/st/Desktop/Raspbian-optee/raspbian-optee/raspbian-tee1/raspbian-tee/optee_os/lib/libutils/isoc/arch/arm/arm32_aeabi_ldivmod_a32.S:26
     bb8:	e92d000f 	push	{r0, r1, r2, r3}
/home/st/Desktop/Raspbian-optee/raspbian-optee/raspbian-tee1/raspbian-tee/optee_os/lib/libutils/isoc/arch/arm/arm32_aeabi_ldivmod_a32.S:28
     bbc:	e1a0000d 	mov	r0, sp
/home/st/Desktop/Raspbian-optee/raspbian-optee/raspbian-tee1/raspbian-tee/optee_os/lib/libutils/isoc/arch/arm/arm32_aeabi_ldivmod_a32.S:29
     bc0:	fb001bb6 	blx	7aa2 <__l_divmod>
/home/st/Desktop/Raspbian-optee/raspbian-optee/raspbian-tee1/raspbian-tee/optee_os/lib/libutils/isoc/arch/arm/arm32_aeabi_ldivmod_a32.S:30
     bc4:	e8bd000f 	pop	{r0, r1, r2, r3}
/home/st/Desktop/Raspbian-optee/raspbian-optee/raspbian-tee1/raspbian-tee/optee_os/lib/libutils/isoc/arch/arm/arm32_aeabi_ldivmod_a32.S:31
     bc8:	e8bd9000 	pop	{ip, pc}

00000bcc <__aeabi_uldivmod>:
__aeabi_uldivmod():
/home/st/Desktop/Raspbian-optee/raspbian-optee/raspbian-tee1/raspbian-tee/optee_os/lib/libutils/isoc/arch/arm/arm32_aeabi_ldivmod_a32.S:42
     bcc:	e92d5000 	push	{ip, lr}
/home/st/Desktop/Raspbian-optee/raspbian-optee/raspbian-tee1/raspbian-tee/optee_os/lib/libutils/isoc/arch/arm/arm32_aeabi_ldivmod_a32.S:44
     bd0:	e92d000f 	push	{r0, r1, r2, r3}
/home/st/Desktop/Raspbian-optee/raspbian-optee/raspbian-tee1/raspbian-tee/optee_os/lib/libutils/isoc/arch/arm/arm32_aeabi_ldivmod_a32.S:46
     bd4:	e1a0000d 	mov	r0, sp
/home/st/Desktop/Raspbian-optee/raspbian-optee/raspbian-tee1/raspbian-tee/optee_os/lib/libutils/isoc/arch/arm/arm32_aeabi_ldivmod_a32.S:47
     bd8:	fb001b91 	blx	7a26 <__ul_divmod>
/home/st/Desktop/Raspbian-optee/raspbian-optee/raspbian-tee1/raspbian-tee/optee_os/lib/libutils/isoc/arch/arm/arm32_aeabi_ldivmod_a32.S:48
     bdc:	e8bd000f 	pop	{r0, r1, r2, r3}
/home/st/Desktop/Raspbian-optee/raspbian-optee/raspbian-tee1/raspbian-tee/optee_os/lib/libutils/isoc/arch/arm/arm32_aeabi_ldivmod_a32.S:49
     be0:	e8bd9000 	pop	{ip, pc}

00000be4 <trace_ext_puts>:
trace_ext_puts():
/home/st/Desktop/Raspbian-optee/raspbian-optee/raspbian-tee1/raspbian-tee/optee_os/lib/libutee/trace_ext.c:17
     be4:	b510      	push	{r4, lr}
     be6:	4604      	mov	r4, r0
/home/st/Desktop/Raspbian-optee/raspbian-optee/raspbian-tee1/raspbian-tee/optee_os/lib/libutee/trace_ext.c:18
     be8:	f006 ff15 	bl	7a16 <strlen>
     bec:	4601      	mov	r1, r0
     bee:	4620      	mov	r0, r4
/home/st/Desktop/Raspbian-optee/raspbian-optee/raspbian-tee1/raspbian-tee/optee_os/lib/libutee/trace_ext.c:19
     bf0:	e8bd 4010 	ldmia.w	sp!, {r4, lr}
/home/st/Desktop/Raspbian-optee/raspbian-optee/raspbian-tee1/raspbian-tee/optee_os/lib/libutee/trace_ext.c:18
     bf4:	f007 b828 	b.w	7c48 <__utee_log_from_thumb>

00000bf8 <trace_ext_get_thread_id>:
trace_ext_get_thread_id():
/home/st/Desktop/Raspbian-optee/raspbian-optee/raspbian-tee1/raspbian-tee/optee_os/lib/libutee/trace_ext.c:24
     bf8:	f04f 30ff 	mov.w	r0, #4294967295	; 0xffffffff
     bfc:	4770      	bx	lr

00000bfe <printf>:
printf():
/home/st/Desktop/Raspbian-optee/raspbian-optee/raspbian-tee1/raspbian-tee/optee_os/lib/libutee/trace_ext.c:32
     bfe:	b40f      	push	{r0, r1, r2, r3}
     c00:	b530      	push	{r4, r5, lr}
     c02:	b0c3      	sub	sp, #268	; 0x10c
/home/st/Desktop/Raspbian-optee/raspbian-optee/raspbian-tee1/raspbian-tee/optee_os/lib/libutee/trace_ext.c:37
     c04:	f7ff ff2c 	bl	a60 <trace_get_level>
     c08:	2800      	cmp	r0, #0
     c0a:	dd13      	ble.n	c34 <printf+0x36>
/home/st/Desktop/Raspbian-optee/raspbian-optee/raspbian-tee1/raspbian-tee/optee_os/lib/libutee/trace_ext.c:41
     c0c:	ad02      	add	r5, sp, #8
/home/st/Desktop/Raspbian-optee/raspbian-optee/raspbian-tee1/raspbian-tee/optee_os/lib/libutee/trace_ext.c:40
     c0e:	ab47      	add	r3, sp, #284	; 0x11c
/home/st/Desktop/Raspbian-optee/raspbian-optee/raspbian-tee1/raspbian-tee/optee_os/lib/libutee/trace_ext.c:41
     c10:	9a46      	ldr	r2, [sp, #280]	; 0x118
     c12:	f44f 7180 	mov.w	r1, #256	; 0x100
     c16:	4628      	mov	r0, r5
/home/st/Desktop/Raspbian-optee/raspbian-optee/raspbian-tee1/raspbian-tee/optee_os/lib/libutee/trace_ext.c:40
     c18:	9301      	str	r3, [sp, #4]
/home/st/Desktop/Raspbian-optee/raspbian-optee/raspbian-tee1/raspbian-tee/optee_os/lib/libutee/trace_ext.c:41
     c1a:	f006 fee4 	bl	79e6 <vsnprintf>
/home/st/Desktop/Raspbian-optee/raspbian-optee/raspbian-tee1/raspbian-tee/optee_os/lib/libutee/trace_ext.c:44
     c1e:	1e04      	subs	r4, r0, #0
     c20:	db02      	blt.n	c28 <printf+0x2a>
/home/st/Desktop/Raspbian-optee/raspbian-optee/raspbian-tee1/raspbian-tee/optee_os/lib/libutee/trace_ext.c:47
     c22:	4628      	mov	r0, r5
     c24:	f7ff ffde 	bl	be4 <trace_ext_puts>
/home/st/Desktop/Raspbian-optee/raspbian-optee/raspbian-tee1/raspbian-tee/optee_os/lib/libutee/trace_ext.c:50
     c28:	4620      	mov	r0, r4
     c2a:	b043      	add	sp, #268	; 0x10c
     c2c:	e8bd 4030 	ldmia.w	sp!, {r4, r5, lr}
     c30:	b004      	add	sp, #16
     c32:	4770      	bx	lr
/home/st/Desktop/Raspbian-optee/raspbian-optee/raspbian-tee1/raspbian-tee/optee_os/lib/libutee/trace_ext.c:38
     c34:	2400      	movs	r4, #0
     c36:	e7f7      	b.n	c28 <printf+0x2a>

00000c38 <puts>:
puts():
/home/st/Desktop/Raspbian-optee/raspbian-optee/raspbian-tee1/raspbian-tee/optee_os/lib/libutee/trace_ext.c:53
     c38:	b510      	push	{r4, lr}
     c3a:	4604      	mov	r4, r0
/home/st/Desktop/Raspbian-optee/raspbian-optee/raspbian-tee1/raspbian-tee/optee_os/lib/libutee/trace_ext.c:54
     c3c:	f7ff ff10 	bl	a60 <trace_get_level>
     c40:	2800      	cmp	r0, #0
     c42:	dd06      	ble.n	c52 <puts+0x1a>
/home/st/Desktop/Raspbian-optee/raspbian-optee/raspbian-tee1/raspbian-tee/optee_os/lib/libutee/trace_ext.c:55
     c44:	4620      	mov	r0, r4
     c46:	f7ff ffcd 	bl	be4 <trace_ext_puts>
/home/st/Desktop/Raspbian-optee/raspbian-optee/raspbian-tee1/raspbian-tee/optee_os/lib/libutee/trace_ext.c:56
     c4a:	4803      	ldr	r0, [pc, #12]	; (c58 <puts+0x20>)
     c4c:	4478      	add	r0, pc
     c4e:	f7ff ffc9 	bl	be4 <trace_ext_puts>
/home/st/Desktop/Raspbian-optee/raspbian-optee/raspbian-tee1/raspbian-tee/optee_os/lib/libutee/trace_ext.c:59
     c52:	2001      	movs	r0, #1
     c54:	bd10      	pop	{r4, pc}
     c56:	bf00      	nop
     c58:	00007cc3 	.word	0x00007cc3

00000c5c <putchar>:
putchar():
/home/st/Desktop/Raspbian-optee/raspbian-optee/raspbian-tee1/raspbian-tee/optee_os/lib/libutee/trace_ext.c:62
     c5c:	b513      	push	{r0, r1, r4, lr}
/home/st/Desktop/Raspbian-optee/raspbian-optee/raspbian-tee1/raspbian-tee/optee_os/lib/libutee/trace_ext.c:63
     c5e:	2300      	movs	r3, #0
/home/st/Desktop/Raspbian-optee/raspbian-optee/raspbian-tee1/raspbian-tee/optee_os/lib/libutee/trace_ext.c:62
     c60:	4604      	mov	r4, r0
/home/st/Desktop/Raspbian-optee/raspbian-optee/raspbian-tee1/raspbian-tee/optee_os/lib/libutee/trace_ext.c:63
     c62:	f88d 0004 	strb.w	r0, [sp, #4]
     c66:	f88d 3005 	strb.w	r3, [sp, #5]
/home/st/Desktop/Raspbian-optee/raspbian-optee/raspbian-tee1/raspbian-tee/optee_os/lib/libutee/trace_ext.c:65
     c6a:	f7ff fef9 	bl	a60 <trace_get_level>
     c6e:	2800      	cmp	r0, #0
     c70:	dd02      	ble.n	c78 <putchar+0x1c>
/home/st/Desktop/Raspbian-optee/raspbian-optee/raspbian-tee1/raspbian-tee/optee_os/lib/libutee/trace_ext.c:66
     c72:	a801      	add	r0, sp, #4
     c74:	f7ff ffb6 	bl	be4 <trace_ext_puts>
/home/st/Desktop/Raspbian-optee/raspbian-optee/raspbian-tee1/raspbian-tee/optee_os/lib/libutee/trace_ext.c:73
     c78:	b2e0      	uxtb	r0, r4
     c7a:	b002      	add	sp, #8
     c7c:	bd10      	pop	{r4, pc}
     c7e:	bf00      	nop

00000c80 <__utee_from_param>:
__utee_from_param():
/home/st/Desktop/Raspbian-optee/raspbian-optee/raspbian-tee1/raspbian-tee/optee_os/lib/libutee/tee_api.c:23
     c80:	2300      	movs	r3, #0
/home/st/Desktop/Raspbian-optee/raspbian-optee/raspbian-tee1/raspbian-tee/optee_os/lib/libutee/tee_api.c:39
     c82:	efc0 0010 	vmov.i32	d16, #0	; 0x00000000
/home/st/Desktop/Raspbian-optee/raspbian-optee/raspbian-tee1/raspbian-tee/optee_os/lib/libutee/tee_api.c:20
     c86:	b5f0      	push	{r4, r5, r6, r7, lr}
/home/st/Desktop/Raspbian-optee/raspbian-optee/raspbian-tee1/raspbian-tee/optee_os/lib/libutee/tee_api.c:35
     c88:	461e      	mov	r6, r3
/home/st/Desktop/Raspbian-optee/raspbian-optee/raspbian-tee1/raspbian-tee/optee_os/lib/libutee/tee_api.c:36
     c8a:	1d17      	adds	r7, r2, #4
/home/st/Desktop/Raspbian-optee/raspbian-optee/raspbian-tee1/raspbian-tee/optee_os/lib/libutee/tee_api.c:23
     c8c:	e9c0 1300 	strd	r1, r3, [r0]
/home/st/Desktop/Raspbian-optee/raspbian-optee/raspbian-tee1/raspbian-tee/optee_os/lib/libutee/tee_api.c:25
     c90:	fa21 f403 	lsr.w	r4, r1, r3
     c94:	f004 050f 	and.w	r5, r4, #15
     c98:	f014 040c 	ands.w	r4, r4, #12
     c9c:	d10d      	bne.n	cba <__utee_from_param+0x3a>
     c9e:	b17d      	cbz	r5, cc0 <__utee_from_param+0x40>
/home/st/Desktop/Raspbian-optee/raspbian-optee/raspbian-tee1/raspbian-tee/optee_os/lib/libutee/tee_api.c:29
     ca0:	f852 5013 	ldr.w	r5, [r2, r3, lsl #1]
     ca4:	e9c0 5402 	strd	r5, r4, [r0, #8]
/home/st/Desktop/Raspbian-optee/raspbian-optee/raspbian-tee1/raspbian-tee/optee_os/lib/libutee/tee_api.c:30
     ca8:	f857 5013 	ldr.w	r5, [r7, r3, lsl #1]
     cac:	e9c0 5404 	strd	r5, r4, [r0, #16]
/home/st/Desktop/Raspbian-optee/raspbian-optee/raspbian-tee1/raspbian-tee/optee_os/lib/libutee/tee_api.c:24 (discriminator 2)
     cb0:	3304      	adds	r3, #4
     cb2:	3010      	adds	r0, #16
     cb4:	2b10      	cmp	r3, #16
     cb6:	d1eb      	bne.n	c90 <__utee_from_param+0x10>
/home/st/Desktop/Raspbian-optee/raspbian-optee/raspbian-tee1/raspbian-tee/optee_os/lib/libutee/tee_api.c:44
     cb8:	bdf0      	pop	{r4, r5, r6, r7, pc}
/home/st/Desktop/Raspbian-optee/raspbian-optee/raspbian-tee1/raspbian-tee/optee_os/lib/libutee/tee_api.c:25
     cba:	3d05      	subs	r5, #5
     cbc:	2d02      	cmp	r5, #2
     cbe:	d904      	bls.n	cca <__utee_from_param+0x4a>
/home/st/Desktop/Raspbian-optee/raspbian-optee/raspbian-tee1/raspbian-tee/optee_os/lib/libutee/tee_api.c:39
     cc0:	edc0 0b02 	vstr	d16, [r0, #8]
/home/st/Desktop/Raspbian-optee/raspbian-optee/raspbian-tee1/raspbian-tee/optee_os/lib/libutee/tee_api.c:40
     cc4:	edc0 0b04 	vstr	d16, [r0, #16]
/home/st/Desktop/Raspbian-optee/raspbian-optee/raspbian-tee1/raspbian-tee/optee_os/lib/libutee/tee_api.c:41
     cc8:	e7f2      	b.n	cb0 <__utee_from_param+0x30>
/home/st/Desktop/Raspbian-optee/raspbian-optee/raspbian-tee1/raspbian-tee/optee_os/lib/libutee/tee_api.c:35
     cca:	f852 4013 	ldr.w	r4, [r2, r3, lsl #1]
     cce:	e9c0 4602 	strd	r4, r6, [r0, #8]
/home/st/Desktop/Raspbian-optee/raspbian-optee/raspbian-tee1/raspbian-tee/optee_os/lib/libutee/tee_api.c:36
     cd2:	f857 4013 	ldr.w	r4, [r7, r3, lsl #1]
     cd6:	e9c0 4604 	strd	r4, r6, [r0, #16]
/home/st/Desktop/Raspbian-optee/raspbian-optee/raspbian-tee1/raspbian-tee/optee_os/lib/libutee/tee_api.c:37
     cda:	e7e9      	b.n	cb0 <__utee_from_param+0x30>

00000cdc <__utee_to_param>:
__utee_to_param():
/home/st/Desktop/Raspbian-optee/raspbian-optee/raspbian-tee1/raspbian-tee/optee_os/lib/libutee/tee_api.c:48
     cdc:	b5f0      	push	{r4, r5, r6, r7, lr}
/home/st/Desktop/Raspbian-optee/raspbian-optee/raspbian-tee1/raspbian-tee/optee_os/lib/libutee/tee_api.c:50
     cde:	2300      	movs	r3, #0
     ce0:	6815      	ldr	r5, [r2, #0]
/home/st/Desktop/Raspbian-optee/raspbian-optee/raspbian-tee1/raspbian-tee/optee_os/lib/libutee/tee_api.c:67
     ce2:	1d06      	adds	r6, r0, #4
/home/st/Desktop/Raspbian-optee/raspbian-optee/raspbian-tee1/raspbian-tee/optee_os/lib/libutee/tee_api.c:56
     ce4:	fa25 fe03 	lsr.w	lr, r5, r3
/home/st/Desktop/Raspbian-optee/raspbian-optee/raspbian-tee1/raspbian-tee/optee_os/lib/libutee/tee_api.c:53
     ce8:	f8d2 c008 	ldr.w	ip, [r2, #8]
/home/st/Desktop/Raspbian-optee/raspbian-optee/raspbian-tee1/raspbian-tee/optee_os/lib/libutee/tee_api.c:54
     cec:	6917      	ldr	r7, [r2, #16]
/home/st/Desktop/Raspbian-optee/raspbian-optee/raspbian-tee1/raspbian-tee/optee_os/lib/libutee/tee_api.c:56
     cee:	f00e 040f 	and.w	r4, lr, #15
     cf2:	f01e 0f0c 	tst.w	lr, #12
     cf6:	d105      	bne.n	d04 <__utee_to_param+0x28>
     cf8:	b13c      	cbz	r4, d0a <__utee_to_param+0x2e>
/home/st/Desktop/Raspbian-optee/raspbian-optee/raspbian-tee1/raspbian-tee/optee_os/lib/libutee/tee_api.c:66
     cfa:	f840 c013 	str.w	ip, [r0, r3, lsl #1]
/home/st/Desktop/Raspbian-optee/raspbian-optee/raspbian-tee1/raspbian-tee/optee_os/lib/libutee/tee_api.c:67
     cfe:	f846 7013 	str.w	r7, [r6, r3, lsl #1]
/home/st/Desktop/Raspbian-optee/raspbian-optee/raspbian-tee1/raspbian-tee/optee_os/lib/libutee/tee_api.c:68
     d02:	e002      	b.n	d0a <__utee_to_param+0x2e>
/home/st/Desktop/Raspbian-optee/raspbian-optee/raspbian-tee1/raspbian-tee/optee_os/lib/libutee/tee_api.c:56
     d04:	3c05      	subs	r4, #5
     d06:	2c02      	cmp	r4, #2
     d08:	d9f7      	bls.n	cfa <__utee_to_param+0x1e>
/home/st/Desktop/Raspbian-optee/raspbian-optee/raspbian-tee1/raspbian-tee/optee_os/lib/libutee/tee_api.c:52 (discriminator 2)
     d0a:	3304      	adds	r3, #4
     d0c:	3210      	adds	r2, #16
     d0e:	2b10      	cmp	r3, #16
     d10:	d1e8      	bne.n	ce4 <__utee_to_param+0x8>
/home/st/Desktop/Raspbian-optee/raspbian-optee/raspbian-tee1/raspbian-tee/optee_os/lib/libutee/tee_api.c:74
     d12:	b101      	cbz	r1, d16 <__utee_to_param+0x3a>
/home/st/Desktop/Raspbian-optee/raspbian-optee/raspbian-tee1/raspbian-tee/optee_os/lib/libutee/tee_api.c:75
     d14:	600d      	str	r5, [r1, #0]
/home/st/Desktop/Raspbian-optee/raspbian-optee/raspbian-tee1/raspbian-tee/optee_os/lib/libutee/tee_api.c:76
     d16:	bdf0      	pop	{r4, r5, r6, r7, pc}

00000d18 <TEE_OpenTASession>:
TEE_OpenTASession():
/home/st/Desktop/Raspbian-optee/raspbian-optee/raspbian-tee1/raspbian-tee/optee_os/lib/libutee/tee_api.c:84
     d18:	b5f0      	push	{r4, r5, r6, r7, lr}
     d1a:	4605      	mov	r5, r0
     d1c:	460f      	mov	r7, r1
     d1e:	b097      	sub	sp, #92	; 0x5c
     d20:	4611      	mov	r1, r2
/home/st/Desktop/Raspbian-optee/raspbian-optee/raspbian-tee1/raspbian-tee/optee_os/lib/libutee/tee_api.c:89
     d22:	ac04      	add	r4, sp, #16
     d24:	461a      	mov	r2, r3
     d26:	4620      	mov	r0, r4
/home/st/Desktop/Raspbian-optee/raspbian-optee/raspbian-tee1/raspbian-tee/optee_os/lib/libutee/tee_api.c:84
     d28:	461e      	mov	r6, r3
/home/st/Desktop/Raspbian-optee/raspbian-optee/raspbian-tee1/raspbian-tee/optee_os/lib/libutee/tee_api.c:89
     d2a:	f7ff ffa9 	bl	c80 <__utee_from_param>
/home/st/Desktop/Raspbian-optee/raspbian-optee/raspbian-tee1/raspbian-tee/optee_os/lib/libutee/tee_api.c:90
     d2e:	9b1d      	ldr	r3, [sp, #116]	; 0x74
     d30:	4622      	mov	r2, r4
     d32:	4639      	mov	r1, r7
     d34:	4628      	mov	r0, r5
     d36:	9300      	str	r3, [sp, #0]
     d38:	ab03      	add	r3, sp, #12
     d3a:	f002 e996 	blx	3068 <utee_open_ta_session>
/home/st/Desktop/Raspbian-optee/raspbian-optee/raspbian-tee1/raspbian-tee/optee_os/lib/libutee/tee_api.c:92
     d3e:	4622      	mov	r2, r4
/home/st/Desktop/Raspbian-optee/raspbian-optee/raspbian-tee1/raspbian-tee/optee_os/lib/libutee/tee_api.c:90
     d40:	4605      	mov	r5, r0
/home/st/Desktop/Raspbian-optee/raspbian-optee/raspbian-tee1/raspbian-tee/optee_os/lib/libutee/tee_api.c:92
     d42:	2100      	movs	r1, #0
     d44:	4630      	mov	r0, r6
     d46:	f7ff ffc9 	bl	cdc <__utee_to_param>
/home/st/Desktop/Raspbian-optee/raspbian-optee/raspbian-tee1/raspbian-tee/optee_os/lib/libutee/tee_api.c:98
     d4a:	b10d      	cbz	r5, d50 <TEE_OpenTASession+0x38>
/home/st/Desktop/Raspbian-optee/raspbian-optee/raspbian-tee1/raspbian-tee/optee_os/lib/libutee/tee_api.c:99
     d4c:	2300      	movs	r3, #0
     d4e:	9303      	str	r3, [sp, #12]
/home/st/Desktop/Raspbian-optee/raspbian-optee/raspbian-tee1/raspbian-tee/optee_os/lib/libutee/tee_api.c:101
     d50:	9b1c      	ldr	r3, [sp, #112]	; 0x70
/home/st/Desktop/Raspbian-optee/raspbian-optee/raspbian-tee1/raspbian-tee/optee_os/lib/libutee/tee_api.c:103
     d52:	4628      	mov	r0, r5
/home/st/Desktop/Raspbian-optee/raspbian-optee/raspbian-tee1/raspbian-tee/optee_os/lib/libutee/tee_api.c:101
     d54:	9a03      	ldr	r2, [sp, #12]
     d56:	601a      	str	r2, [r3, #0]
/home/st/Desktop/Raspbian-optee/raspbian-optee/raspbian-tee1/raspbian-tee/optee_os/lib/libutee/tee_api.c:103
     d58:	b017      	add	sp, #92	; 0x5c
     d5a:	bdf0      	pop	{r4, r5, r6, r7, pc}

00000d5c <TEE_CloseTASession>:
TEE_CloseTASession():
/home/st/Desktop/Raspbian-optee/raspbian-optee/raspbian-tee1/raspbian-tee/optee_os/lib/libutee/tee_api.c:106
     d5c:	b508      	push	{r3, lr}
/home/st/Desktop/Raspbian-optee/raspbian-optee/raspbian-tee1/raspbian-tee/optee_os/lib/libutee/tee_api.c:107
     d5e:	b130      	cbz	r0, d6e <TEE_CloseTASession+0x12>
/home/st/Desktop/Raspbian-optee/raspbian-optee/raspbian-tee1/raspbian-tee/optee_os/lib/libutee/tee_api.c:108
     d60:	f002 e98e 	blx	3080 <utee_close_ta_session>
/home/st/Desktop/Raspbian-optee/raspbian-optee/raspbian-tee1/raspbian-tee/optee_os/lib/libutee/tee_api.c:110
     d64:	b118      	cbz	r0, d6e <TEE_CloseTASession+0x12>
/home/st/Desktop/Raspbian-optee/raspbian-optee/raspbian-tee1/raspbian-tee/optee_os/lib/libutee/tee_api.c:113
     d66:	e8bd 4008 	ldmia.w	sp!, {r3, lr}
/home/st/Desktop/Raspbian-optee/raspbian-optee/raspbian-tee1/raspbian-tee/optee_os/lib/libutee/tee_api.c:111
     d6a:	f006 bf1a 	b.w	7ba2 <TEE_Panic>
/home/st/Desktop/Raspbian-optee/raspbian-optee/raspbian-tee1/raspbian-tee/optee_os/lib/libutee/tee_api.c:113
     d6e:	bd08      	pop	{r3, pc}

00000d70 <TEE_InvokeTACommand>:
TEE_InvokeTACommand():
/home/st/Desktop/Raspbian-optee/raspbian-optee/raspbian-tee1/raspbian-tee/optee_os/lib/libutee/tee_api.c:120
     d70:	e92d 43f0 	stmdb	sp!, {r4, r5, r6, r7, r8, r9, lr}
     d74:	4604      	mov	r4, r0
     d76:	460e      	mov	r6, r1
     d78:	b097      	sub	sp, #92	; 0x5c
/home/st/Desktop/Raspbian-optee/raspbian-optee/raspbian-tee1/raspbian-tee/optee_os/lib/libutee/tee_api.c:125
     d7a:	4619      	mov	r1, r3
     d7c:	ad04      	add	r5, sp, #16
/home/st/Desktop/Raspbian-optee/raspbian-optee/raspbian-tee1/raspbian-tee/optee_os/lib/libutee/tee_api.c:120
     d7e:	4617      	mov	r7, r2
/home/st/Desktop/Raspbian-optee/raspbian-optee/raspbian-tee1/raspbian-tee/optee_os/lib/libutee/tee_api.c:125
     d80:	4628      	mov	r0, r5
/home/st/Desktop/Raspbian-optee/raspbian-optee/raspbian-tee1/raspbian-tee/optee_os/lib/libutee/tee_api.c:120
     d82:	f8dd 9078 	ldr.w	r9, [sp, #120]	; 0x78
     d86:	f8dd 807c 	ldr.w	r8, [sp, #124]	; 0x7c
/home/st/Desktop/Raspbian-optee/raspbian-optee/raspbian-tee1/raspbian-tee/optee_os/lib/libutee/tee_api.c:125
     d8a:	464a      	mov	r2, r9
     d8c:	f7ff ff78 	bl	c80 <__utee_from_param>
/home/st/Desktop/Raspbian-optee/raspbian-optee/raspbian-tee1/raspbian-tee/optee_os/lib/libutee/tee_api.c:126
     d90:	ab03      	add	r3, sp, #12
     d92:	463a      	mov	r2, r7
     d94:	4631      	mov	r1, r6
     d96:	4620      	mov	r0, r4
     d98:	9300      	str	r3, [sp, #0]
     d9a:	462b      	mov	r3, r5
     d9c:	f002 e97a 	blx	3094 <utee_invoke_ta_command>
/home/st/Desktop/Raspbian-optee/raspbian-optee/raspbian-tee1/raspbian-tee/optee_os/lib/libutee/tee_api.c:129
     da0:	462a      	mov	r2, r5
/home/st/Desktop/Raspbian-optee/raspbian-optee/raspbian-tee1/raspbian-tee/optee_os/lib/libutee/tee_api.c:126
     da2:	4604      	mov	r4, r0
/home/st/Desktop/Raspbian-optee/raspbian-optee/raspbian-tee1/raspbian-tee/optee_os/lib/libutee/tee_api.c:129
     da4:	2100      	movs	r1, #0
     da6:	4648      	mov	r0, r9
     da8:	f7ff ff98 	bl	cdc <__utee_to_param>
/home/st/Desktop/Raspbian-optee/raspbian-optee/raspbian-tee1/raspbian-tee/optee_os/lib/libutee/tee_api.c:131
     dac:	9b03      	ldr	r3, [sp, #12]
     dae:	f1b8 0f00 	cmp.w	r8, #0
     db2:	d001      	beq.n	db8 <TEE_InvokeTACommand+0x48>
/home/st/Desktop/Raspbian-optee/raspbian-optee/raspbian-tee1/raspbian-tee/optee_os/lib/libutee/tee_api.c:132
     db4:	f8c8 3000 	str.w	r3, [r8]
/home/st/Desktop/Raspbian-optee/raspbian-optee/raspbian-tee1/raspbian-tee/optee_os/lib/libutee/tee_api.c:134
     db8:	2b04      	cmp	r3, #4
     dba:	d009      	beq.n	dd0 <TEE_InvokeTACommand+0x60>
/home/st/Desktop/Raspbian-optee/raspbian-optee/raspbian-tee1/raspbian-tee/optee_os/lib/libutee/tee_api.c:137
     dbc:	b144      	cbz	r4, dd0 <TEE_InvokeTACommand+0x60>
/home/st/Desktop/Raspbian-optee/raspbian-optee/raspbian-tee1/raspbian-tee/optee_os/lib/libutee/tee_api.c:137 (discriminator 1)
     dbe:	4b06      	ldr	r3, [pc, #24]	; (dd8 <TEE_InvokeTACommand+0x68>)
     dc0:	429c      	cmp	r4, r3
     dc2:	d005      	beq.n	dd0 <TEE_InvokeTACommand+0x60>
/home/st/Desktop/Raspbian-optee/raspbian-optee/raspbian-tee1/raspbian-tee/optee_os/lib/libutee/tee_api.c:138
     dc4:	4b05      	ldr	r3, [pc, #20]	; (ddc <TEE_InvokeTACommand+0x6c>)
     dc6:	429c      	cmp	r4, r3
     dc8:	d002      	beq.n	dd0 <TEE_InvokeTACommand+0x60>
/home/st/Desktop/Raspbian-optee/raspbian-optee/raspbian-tee1/raspbian-tee/optee_os/lib/libutee/tee_api.c:140
     dca:	4620      	mov	r0, r4
     dcc:	f006 fee9 	bl	7ba2 <TEE_Panic>
/home/st/Desktop/Raspbian-optee/raspbian-optee/raspbian-tee1/raspbian-tee/optee_os/lib/libutee/tee_api.c:143
     dd0:	4620      	mov	r0, r4
     dd2:	b017      	add	sp, #92	; 0x5c
     dd4:	e8bd 83f0 	ldmia.w	sp!, {r4, r5, r6, r7, r8, r9, pc}
     dd8:	ffff000c 	.word	0xffff000c
     ddc:	ffff3024 	.word	0xffff3024

00000de0 <TEE_GetCancellationFlag>:
TEE_GetCancellationFlag():
/home/st/Desktop/Raspbian-optee/raspbian-optee/raspbian-tee1/raspbian-tee/optee_os/lib/libutee/tee_api.c:148
     de0:	b507      	push	{r0, r1, r2, lr}
/home/st/Desktop/Raspbian-optee/raspbian-optee/raspbian-tee1/raspbian-tee/optee_os/lib/libutee/tee_api.c:150
     de2:	a801      	add	r0, sp, #4
     de4:	f002 e962 	blx	30ac <utee_get_cancellation_flag>
/home/st/Desktop/Raspbian-optee/raspbian-optee/raspbian-tee1/raspbian-tee/optee_os/lib/libutee/tee_api.c:152
     de8:	b108      	cbz	r0, dee <TEE_GetCancellationFlag+0xe>
/home/st/Desktop/Raspbian-optee/raspbian-optee/raspbian-tee1/raspbian-tee/optee_os/lib/libutee/tee_api.c:153
     dea:	2300      	movs	r3, #0
     dec:	9301      	str	r3, [sp, #4]
/home/st/Desktop/Raspbian-optee/raspbian-optee/raspbian-tee1/raspbian-tee/optee_os/lib/libutee/tee_api.c:155
     dee:	9801      	ldr	r0, [sp, #4]
     df0:	3800      	subs	r0, #0
     df2:	bf18      	it	ne
     df4:	2001      	movne	r0, #1
     df6:	b003      	add	sp, #12
     df8:	f85d fb04 	ldr.w	pc, [sp], #4

00000dfc <TEE_UnmaskCancellation>:
TEE_UnmaskCancellation():
/home/st/Desktop/Raspbian-optee/raspbian-optee/raspbian-tee1/raspbian-tee/optee_os/lib/libutee/tee_api.c:158
     dfc:	b507      	push	{r0, r1, r2, lr}
/home/st/Desktop/Raspbian-optee/raspbian-optee/raspbian-tee1/raspbian-tee/optee_os/lib/libutee/tee_api.c:160
     dfe:	a801      	add	r0, sp, #4
     e00:	f002 e968 	blx	30d4 <utee_unmask_cancellation>
/home/st/Desktop/Raspbian-optee/raspbian-optee/raspbian-tee1/raspbian-tee/optee_os/lib/libutee/tee_api.c:162
     e04:	b108      	cbz	r0, e0a <TEE_UnmaskCancellation+0xe>
/home/st/Desktop/Raspbian-optee/raspbian-optee/raspbian-tee1/raspbian-tee/optee_os/lib/libutee/tee_api.c:163
     e06:	f006 fecc 	bl	7ba2 <TEE_Panic>
/home/st/Desktop/Raspbian-optee/raspbian-optee/raspbian-tee1/raspbian-tee/optee_os/lib/libutee/tee_api.c:165
     e0a:	9801      	ldr	r0, [sp, #4]
     e0c:	3800      	subs	r0, #0
     e0e:	bf18      	it	ne
     e10:	2001      	movne	r0, #1
     e12:	b003      	add	sp, #12
     e14:	f85d fb04 	ldr.w	pc, [sp], #4

00000e18 <TEE_MaskCancellation>:
TEE_MaskCancellation():
/home/st/Desktop/Raspbian-optee/raspbian-optee/raspbian-tee1/raspbian-tee/optee_os/lib/libutee/tee_api.c:168
     e18:	b507      	push	{r0, r1, r2, lr}
/home/st/Desktop/Raspbian-optee/raspbian-optee/raspbian-tee1/raspbian-tee/optee_os/lib/libutee/tee_api.c:170
     e1a:	a801      	add	r0, sp, #4
     e1c:	f002 e964 	blx	30e8 <utee_mask_cancellation>
/home/st/Desktop/Raspbian-optee/raspbian-optee/raspbian-tee1/raspbian-tee/optee_os/lib/libutee/tee_api.c:172
     e20:	b108      	cbz	r0, e26 <TEE_MaskCancellation+0xe>
/home/st/Desktop/Raspbian-optee/raspbian-optee/raspbian-tee1/raspbian-tee/optee_os/lib/libutee/tee_api.c:173
     e22:	f006 febe 	bl	7ba2 <TEE_Panic>
/home/st/Desktop/Raspbian-optee/raspbian-optee/raspbian-tee1/raspbian-tee/optee_os/lib/libutee/tee_api.c:175
     e26:	9801      	ldr	r0, [sp, #4]
     e28:	3800      	subs	r0, #0
     e2a:	bf18      	it	ne
     e2c:	2001      	movne	r0, #1
     e2e:	b003      	add	sp, #12
     e30:	f85d fb04 	ldr.w	pc, [sp], #4

00000e34 <TEE_CheckMemoryAccessRights>:
TEE_CheckMemoryAccessRights():
/home/st/Desktop/Raspbian-optee/raspbian-optee/raspbian-tee1/raspbian-tee/optee_os/lib/libutee/tee_api.c:184
     e34:	b10a      	cbz	r2, e3a <TEE_CheckMemoryAccessRights+0x6>
/home/st/Desktop/Raspbian-optee/raspbian-optee/raspbian-tee1/raspbian-tee/optee_os/lib/libutee/tee_api.c:188
     e36:	f006 bf0f 	b.w	7c58 <__utee_check_access_rights_from_thumb>
/home/st/Desktop/Raspbian-optee/raspbian-optee/raspbian-tee1/raspbian-tee/optee_os/lib/libutee/tee_api.c:200
     e3a:	4610      	mov	r0, r2
     e3c:	4770      	bx	lr

00000e3e <TEE_SetInstanceData>:
TEE_SetInstanceData():
/home/st/Desktop/Raspbian-optee/raspbian-optee/raspbian-tee1/raspbian-tee/optee_os/lib/libutee/tee_api.c:204
     e3e:	4b02      	ldr	r3, [pc, #8]	; (e48 <TEE_SetInstanceData+0xa>)
     e40:	447b      	add	r3, pc
     e42:	6018      	str	r0, [r3, #0]
/home/st/Desktop/Raspbian-optee/raspbian-optee/raspbian-tee1/raspbian-tee/optee_os/lib/libutee/tee_api.c:205
     e44:	4770      	bx	lr
     e46:	bf00      	nop
     e48:	00009480 	.word	0x00009480

00000e4c <TEE_GetInstanceData>:
TEE_GetInstanceData():
/home/st/Desktop/Raspbian-optee/raspbian-optee/raspbian-tee1/raspbian-tee/optee_os/lib/libutee/tee_api.c:210
     e4c:	4b01      	ldr	r3, [pc, #4]	; (e54 <TEE_GetInstanceData+0x8>)
     e4e:	447b      	add	r3, pc
     e50:	6818      	ldr	r0, [r3, #0]
     e52:	4770      	bx	lr
     e54:	00009472 	.word	0x00009472

00000e58 <TEE_MemMove>:
TEE_MemMove():
/home/st/Desktop/Raspbian-optee/raspbian-optee/raspbian-tee1/raspbian-tee/optee_os/lib/libutee/tee_api.c:214
     e58:	f006 bebe 	b.w	7bd8 <memmove>

00000e5c <TEE_MemCompare>:
TEE_MemCompare():
/home/st/Desktop/Raspbian-optee/raspbian-optee/raspbian-tee1/raspbian-tee/optee_os/lib/libutee/tee_api.c:219
     e5c:	f006 bea3 	b.w	7ba6 <memcmp>

00000e60 <TEE_MemFill>:
TEE_MemFill():
/home/st/Desktop/Raspbian-optee/raspbian-optee/raspbian-tee1/raspbian-tee/optee_os/lib/libutee/tee_api.c:224
     e60:	f006 bed4 	b.w	7c0c <memset>

00000e64 <TEE_GetSystemTime>:
TEE_GetSystemTime():
/home/st/Desktop/Raspbian-optee/raspbian-optee/raspbian-tee1/raspbian-tee/optee_os/lib/libutee/tee_api.c:230
     e64:	4601      	mov	r1, r0
     e66:	b508      	push	{r3, lr}
/home/st/Desktop/Raspbian-optee/raspbian-optee/raspbian-tee1/raspbian-tee/optee_os/lib/libutee/tee_api.c:231
     e68:	2000      	movs	r0, #0
     e6a:	f002 e952 	blx	3110 <utee_get_time>
/home/st/Desktop/Raspbian-optee/raspbian-optee/raspbian-tee1/raspbian-tee/optee_os/lib/libutee/tee_api.c:233
     e6e:	b118      	cbz	r0, e78 <TEE_GetSystemTime+0x14>
/home/st/Desktop/Raspbian-optee/raspbian-optee/raspbian-tee1/raspbian-tee/optee_os/lib/libutee/tee_api.c:235
     e70:	e8bd 4008 	ldmia.w	sp!, {r3, lr}
/home/st/Desktop/Raspbian-optee/raspbian-optee/raspbian-tee1/raspbian-tee/optee_os/lib/libutee/tee_api.c:234
     e74:	f006 be95 	b.w	7ba2 <TEE_Panic>
/home/st/Desktop/Raspbian-optee/raspbian-optee/raspbian-tee1/raspbian-tee/optee_os/lib/libutee/tee_api.c:235
     e78:	bd08      	pop	{r3, pc}

00000e7a <TEE_Wait>:
TEE_Wait():
/home/st/Desktop/Raspbian-optee/raspbian-optee/raspbian-tee1/raspbian-tee/optee_os/lib/libutee/tee_api.c:238
     e7a:	b510      	push	{r4, lr}
/home/st/Desktop/Raspbian-optee/raspbian-optee/raspbian-tee1/raspbian-tee/optee_os/lib/libutee/tee_api.c:239
     e7c:	f002 e93e 	blx	30fc <utee_wait>
/home/st/Desktop/Raspbian-optee/raspbian-optee/raspbian-tee1/raspbian-tee/optee_os/lib/libutee/tee_api.c:241
     e80:	4604      	mov	r4, r0
     e82:	b120      	cbz	r0, e8e <TEE_Wait+0x14>
/home/st/Desktop/Raspbian-optee/raspbian-optee/raspbian-tee1/raspbian-tee/optee_os/lib/libutee/tee_api.c:241 (discriminator 1)
     e84:	4b03      	ldr	r3, [pc, #12]	; (e94 <TEE_Wait+0x1a>)
     e86:	4298      	cmp	r0, r3
     e88:	d001      	beq.n	e8e <TEE_Wait+0x14>
/home/st/Desktop/Raspbian-optee/raspbian-optee/raspbian-tee1/raspbian-tee/optee_os/lib/libutee/tee_api.c:242
     e8a:	f006 fe8a 	bl	7ba2 <TEE_Panic>
/home/st/Desktop/Raspbian-optee/raspbian-optee/raspbian-tee1/raspbian-tee/optee_os/lib/libutee/tee_api.c:245
     e8e:	4620      	mov	r0, r4
     e90:	bd10      	pop	{r4, pc}
     e92:	bf00      	nop
     e94:	ffff0002 	.word	0xffff0002

00000e98 <TEE_GetTAPersistentTime>:
TEE_GetTAPersistentTime():
/home/st/Desktop/Raspbian-optee/raspbian-optee/raspbian-tee1/raspbian-tee/optee_os/lib/libutee/tee_api.c:248
     e98:	b538      	push	{r3, r4, r5, lr}
/home/st/Desktop/Raspbian-optee/raspbian-optee/raspbian-tee1/raspbian-tee/optee_os/lib/libutee/tee_api.c:251
     e9a:	4601      	mov	r1, r0
/home/st/Desktop/Raspbian-optee/raspbian-optee/raspbian-tee1/raspbian-tee/optee_os/lib/libutee/tee_api.c:248
     e9c:	4605      	mov	r5, r0
/home/st/Desktop/Raspbian-optee/raspbian-optee/raspbian-tee1/raspbian-tee/optee_os/lib/libutee/tee_api.c:251
     e9e:	2001      	movs	r0, #1
     ea0:	f002 e936 	blx	3110 <utee_get_time>
/home/st/Desktop/Raspbian-optee/raspbian-optee/raspbian-tee1/raspbian-tee/optee_os/lib/libutee/tee_api.c:253
     ea4:	4604      	mov	r4, r0
     ea6:	b170      	cbz	r0, ec6 <TEE_GetTAPersistentTime+0x2e>
/home/st/Desktop/Raspbian-optee/raspbian-optee/raspbian-tee1/raspbian-tee/optee_os/lib/libutee/tee_api.c:253 (discriminator 1)
     ea8:	4b08      	ldr	r3, [pc, #32]	; (ecc <TEE_GetTAPersistentTime+0x34>)
     eaa:	4298      	cmp	r0, r3
     eac:	d00b      	beq.n	ec6 <TEE_GetTAPersistentTime+0x2e>
/home/st/Desktop/Raspbian-optee/raspbian-optee/raspbian-tee1/raspbian-tee/optee_os/lib/libutee/tee_api.c:254
     eae:	2300      	movs	r3, #0
     eb0:	602b      	str	r3, [r5, #0]
/home/st/Desktop/Raspbian-optee/raspbian-optee/raspbian-tee1/raspbian-tee/optee_os/lib/libutee/tee_api.c:255
     eb2:	606b      	str	r3, [r5, #4]
/home/st/Desktop/Raspbian-optee/raspbian-optee/raspbian-tee1/raspbian-tee/optee_os/lib/libutee/tee_api.c:258
     eb4:	f500 4330 	add.w	r3, r0, #45056	; 0xb000
     eb8:	2b01      	cmp	r3, #1
     eba:	d904      	bls.n	ec6 <TEE_GetTAPersistentTime+0x2e>
/home/st/Desktop/Raspbian-optee/raspbian-optee/raspbian-tee1/raspbian-tee/optee_os/lib/libutee/tee_api.c:261
     ebc:	4b04      	ldr	r3, [pc, #16]	; (ed0 <TEE_GetTAPersistentTime+0x38>)
     ebe:	4298      	cmp	r0, r3
     ec0:	d001      	beq.n	ec6 <TEE_GetTAPersistentTime+0x2e>
/home/st/Desktop/Raspbian-optee/raspbian-optee/raspbian-tee1/raspbian-tee/optee_os/lib/libutee/tee_api.c:263
     ec2:	f006 fe6e 	bl	7ba2 <TEE_Panic>
/home/st/Desktop/Raspbian-optee/raspbian-optee/raspbian-tee1/raspbian-tee/optee_os/lib/libutee/tee_api.c:266
     ec6:	4620      	mov	r0, r4
     ec8:	bd38      	pop	{r3, r4, r5, pc}
     eca:	bf00      	nop
     ecc:	ffff300f 	.word	0xffff300f
     ed0:	ffff000c 	.word	0xffff000c

00000ed4 <TEE_SetTAPersistentTime>:
TEE_SetTAPersistentTime():
/home/st/Desktop/Raspbian-optee/raspbian-optee/raspbian-tee1/raspbian-tee/optee_os/lib/libutee/tee_api.c:269
     ed4:	b510      	push	{r4, lr}
/home/st/Desktop/Raspbian-optee/raspbian-optee/raspbian-tee1/raspbian-tee/optee_os/lib/libutee/tee_api.c:272
     ed6:	f002 e926 	blx	3124 <utee_set_ta_time>
/home/st/Desktop/Raspbian-optee/raspbian-optee/raspbian-tee1/raspbian-tee/optee_os/lib/libutee/tee_api.c:274
     eda:	4604      	mov	r4, r0
     edc:	b138      	cbz	r0, eee <TEE_SetTAPersistentTime+0x1a>
/home/st/Desktop/Raspbian-optee/raspbian-optee/raspbian-tee1/raspbian-tee/optee_os/lib/libutee/tee_api.c:274 (discriminator 1)
     ede:	4b05      	ldr	r3, [pc, #20]	; (ef4 <TEE_SetTAPersistentTime+0x20>)
     ee0:	4298      	cmp	r0, r3
     ee2:	d004      	beq.n	eee <TEE_SetTAPersistentTime+0x1a>
/home/st/Desktop/Raspbian-optee/raspbian-optee/raspbian-tee1/raspbian-tee/optee_os/lib/libutee/tee_api.c:275
     ee4:	4b04      	ldr	r3, [pc, #16]	; (ef8 <TEE_SetTAPersistentTime+0x24>)
     ee6:	4298      	cmp	r0, r3
     ee8:	d001      	beq.n	eee <TEE_SetTAPersistentTime+0x1a>
/home/st/Desktop/Raspbian-optee/raspbian-optee/raspbian-tee1/raspbian-tee/optee_os/lib/libutee/tee_api.c:277
     eea:	f006 fe5a 	bl	7ba2 <TEE_Panic>
/home/st/Desktop/Raspbian-optee/raspbian-optee/raspbian-tee1/raspbian-tee/optee_os/lib/libutee/tee_api.c:280
     eee:	4620      	mov	r0, r4
     ef0:	bd10      	pop	{r4, pc}
     ef2:	bf00      	nop
     ef4:	ffff000c 	.word	0xffff000c
     ef8:	ffff3041 	.word	0xffff3041

00000efc <TEE_GetREETime>:
TEE_GetREETime():
/home/st/Desktop/Raspbian-optee/raspbian-optee/raspbian-tee1/raspbian-tee/optee_os/lib/libutee/tee_api.c:283
     efc:	4601      	mov	r1, r0
     efe:	b508      	push	{r3, lr}
/home/st/Desktop/Raspbian-optee/raspbian-optee/raspbian-tee1/raspbian-tee/optee_os/lib/libutee/tee_api.c:284
     f00:	2002      	movs	r0, #2
     f02:	f002 e906 	blx	3110 <utee_get_time>
/home/st/Desktop/Raspbian-optee/raspbian-optee/raspbian-tee1/raspbian-tee/optee_os/lib/libutee/tee_api.c:286
     f06:	b118      	cbz	r0, f10 <TEE_GetREETime+0x14>
/home/st/Desktop/Raspbian-optee/raspbian-optee/raspbian-tee1/raspbian-tee/optee_os/lib/libutee/tee_api.c:288
     f08:	e8bd 4008 	ldmia.w	sp!, {r3, lr}
/home/st/Desktop/Raspbian-optee/raspbian-optee/raspbian-tee1/raspbian-tee/optee_os/lib/libutee/tee_api.c:287
     f0c:	f006 be49 	b.w	7ba2 <TEE_Panic>
/home/st/Desktop/Raspbian-optee/raspbian-optee/raspbian-tee1/raspbian-tee/optee_os/lib/libutee/tee_api.c:288
     f10:	bd08      	pop	{r3, pc}

00000f12 <TEE_Malloc>:
TEE_Malloc():
/home/st/Desktop/Raspbian-optee/raspbian-optee/raspbian-tee1/raspbian-tee/optee_os/lib/libutee/tee_api.c:291
     f12:	b507      	push	{r0, r1, r2, lr}
/home/st/Desktop/Raspbian-optee/raspbian-optee/raspbian-tee1/raspbian-tee/optee_os/lib/libutee/tee_api.c:292
     f14:	b931      	cbnz	r1, f24 <TEE_Malloc+0x12>
/home/st/Desktop/Raspbian-optee/raspbian-optee/raspbian-tee1/raspbian-tee/optee_os/lib/libutee/tee_api.c:293
     f16:	4601      	mov	r1, r0
     f18:	2001      	movs	r0, #1
/home/st/Desktop/Raspbian-optee/raspbian-optee/raspbian-tee1/raspbian-tee/optee_os/lib/libutee/tee_api.c:300
     f1a:	b003      	add	sp, #12
     f1c:	f85d eb04 	ldr.w	lr, [sp], #4
/home/st/Desktop/Raspbian-optee/raspbian-optee/raspbian-tee1/raspbian-tee/optee_os/lib/libutee/tee_api.c:293
     f20:	f006 b9fe 	b.w	7320 <calloc>
/home/st/Desktop/Raspbian-optee/raspbian-optee/raspbian-tee1/raspbian-tee/optee_os/lib/libutee/tee_api.c:294
     f24:	f1b1 4f00 	cmp.w	r1, #2147483648	; 0x80000000
     f28:	d104      	bne.n	f34 <TEE_Malloc+0x22>
/home/st/Desktop/Raspbian-optee/raspbian-optee/raspbian-tee1/raspbian-tee/optee_os/lib/libutee/tee_api.c:300
     f2a:	b003      	add	sp, #12
     f2c:	f85d eb04 	ldr.w	lr, [sp], #4
/home/st/Desktop/Raspbian-optee/raspbian-optee/raspbian-tee1/raspbian-tee/optee_os/lib/libutee/tee_api.c:295
     f30:	f006 b9d2 	b.w	72d8 <malloc>
/home/st/Desktop/Raspbian-optee/raspbian-optee/raspbian-tee1/raspbian-tee/optee_os/lib/libutee/tee_api.c:297
     f34:	4b07      	ldr	r3, [pc, #28]	; (f54 <TEE_Malloc+0x42>)
     f36:	4808      	ldr	r0, [pc, #32]	; (f58 <TEE_Malloc+0x46>)
     f38:	447b      	add	r3, pc
     f3a:	9300      	str	r3, [sp, #0]
     f3c:	2301      	movs	r3, #1
     f3e:	9101      	str	r1, [sp, #4]
     f40:	461a      	mov	r2, r3
     f42:	4478      	add	r0, pc
     f44:	f240 1129 	movw	r1, #297	; 0x129
     f48:	f7ff fd94 	bl	a74 <trace_printf>
/home/st/Desktop/Raspbian-optee/raspbian-optee/raspbian-tee1/raspbian-tee/optee_os/lib/libutee/tee_api.c:300
     f4c:	2000      	movs	r0, #0
     f4e:	b003      	add	sp, #12
     f50:	f85d fb04 	ldr.w	pc, [sp], #4
     f54:	00007366 	.word	0x00007366
     f58:	0000736d 	.word	0x0000736d

00000f5c <TEE_Realloc>:
TEE_Realloc():
/home/st/Desktop/Raspbian-optee/raspbian-optee/raspbian-tee1/raspbian-tee/optee_os/lib/libutee/tee_api.c:304
     f5c:	f006 ba04 	b.w	7368 <realloc>

00000f60 <TEE_Free>:
TEE_Free():
/home/st/Desktop/Raspbian-optee/raspbian-optee/raspbian-tee1/raspbian-tee/optee_os/lib/libutee/tee_api.c:309
     f60:	f006 b9d6 	b.w	7310 <free>

00000f64 <TEE_CacheClean>:
TEE_CacheClean():
/home/st/Desktop/Raspbian-optee/raspbian-optee/raspbian-tee1/raspbian-tee/optee_os/lib/libutee/tee_api.c:315
     f64:	2200      	movs	r2, #0
     f66:	f006 be87 	b.w	7c78 <__utee_cache_operation_from_thumb>

00000f6a <TEE_CacheFlush>:
TEE_CacheFlush():
/home/st/Desktop/Raspbian-optee/raspbian-optee/raspbian-tee1/raspbian-tee/optee_os/lib/libutee/tee_api.c:319
     f6a:	2201      	movs	r2, #1
     f6c:	f006 be84 	b.w	7c78 <__utee_cache_operation_from_thumb>

00000f70 <TEE_CacheInvalidate>:
TEE_CacheInvalidate():
/home/st/Desktop/Raspbian-optee/raspbian-optee/raspbian-tee1/raspbian-tee/optee_os/lib/libutee/tee_api.c:324
     f70:	2202      	movs	r2, #2
     f72:	f006 be81 	b.w	7c78 <__utee_cache_operation_from_thumb>
     f76:	bf00      	nop

00000f78 <__utee_from_attr>:
__utee_from_attr():
/home/st/Desktop/Raspbian-optee/raspbian-optee/raspbian-tee1/raspbian-tee/optee_os/lib/libutee/tee_api_objects.c:22
     f78:	2318      	movs	r3, #24
/home/st/Desktop/Raspbian-optee/raspbian-optee/raspbian-tee1/raspbian-tee/optee_os/lib/libutee/tee_api_objects.c:19
     f7a:	b570      	push	{r4, r5, r6, lr}
     f7c:	2400      	movs	r4, #0
     f7e:	fb03 0202 	mla	r2, r3, r2, r0
/home/st/Desktop/Raspbian-optee/raspbian-optee/raspbian-tee1/raspbian-tee/optee_os/lib/libutee/tee_api_objects.c:22 (discriminator 1)
     f82:	4290      	cmp	r0, r2
     f84:	d100      	bne.n	f88 <__utee_from_attr+0x10>
/home/st/Desktop/Raspbian-optee/raspbian-optee/raspbian-tee1/raspbian-tee/optee_os/lib/libutee/tee_api_objects.c:32
     f86:	bd70      	pop	{r4, r5, r6, pc}
/home/st/Desktop/Raspbian-optee/raspbian-optee/raspbian-tee1/raspbian-tee/optee_os/lib/libutee/tee_api_objects.c:23
     f88:	680b      	ldr	r3, [r1, #0]
     f8a:	6103      	str	r3, [r0, #16]
/home/st/Desktop/Raspbian-optee/raspbian-optee/raspbian-tee1/raspbian-tee/optee_os/lib/libutee/tee_api_objects.c:24
     f8c:	f013 5300 	ands.w	r3, r3, #536870912	; 0x20000000
     f90:	688d      	ldr	r5, [r1, #8]
     f92:	d007      	beq.n	fa4 <__utee_from_attr+0x2c>
/home/st/Desktop/Raspbian-optee/raspbian-optee/raspbian-tee1/raspbian-tee/optee_os/lib/libutee/tee_api_objects.c:25
     f94:	684b      	ldr	r3, [r1, #4]
     f96:	e9c0 3400 	strd	r3, r4, [r0]
/home/st/Desktop/Raspbian-optee/raspbian-optee/raspbian-tee1/raspbian-tee/optee_os/lib/libutee/tee_api_objects.c:26
     f9a:	e9c0 5402 	strd	r5, r4, [r0, #8]
/home/st/Desktop/Raspbian-optee/raspbian-optee/raspbian-tee1/raspbian-tee/optee_os/lib/libutee/tee_api_objects.c:22 (discriminator 2)
     f9e:	310c      	adds	r1, #12
     fa0:	3018      	adds	r0, #24
     fa2:	e7ee      	b.n	f82 <__utee_from_attr+0xa>
/home/st/Desktop/Raspbian-optee/raspbian-optee/raspbian-tee1/raspbian-tee/optee_os/lib/libutee/tee_api_objects.c:28
     fa4:	684e      	ldr	r6, [r1, #4]
     fa6:	e9c0 6300 	strd	r6, r3, [r0]
/home/st/Desktop/Raspbian-optee/raspbian-optee/raspbian-tee1/raspbian-tee/optee_os/lib/libutee/tee_api_objects.c:29
     faa:	e9c0 5302 	strd	r5, r3, [r0, #8]
     fae:	e7f6      	b.n	f9e <__utee_from_attr+0x26>

00000fb0 <TEE_GetObjectInfo>:
TEE_GetObjectInfo():
/home/st/Desktop/Raspbian-optee/raspbian-optee/raspbian-tee1/raspbian-tee/optee_os/lib/libutee/tee_api_objects.c:42
     fb0:	b510      	push	{r4, lr}
     fb2:	460c      	mov	r4, r1
/home/st/Desktop/Raspbian-optee/raspbian-optee/raspbian-tee1/raspbian-tee/optee_os/lib/libutee/tee_api_objects.c:45
     fb4:	f002 e922 	blx	31fc <utee_cryp_obj_get_info>
/home/st/Desktop/Raspbian-optee/raspbian-optee/raspbian-tee1/raspbian-tee/optee_os/lib/libutee/tee_api_objects.c:47
     fb8:	b108      	cbz	r0, fbe <TEE_GetObjectInfo+0xe>
/home/st/Desktop/Raspbian-optee/raspbian-optee/raspbian-tee1/raspbian-tee/optee_os/lib/libutee/tee_api_objects.c:48
     fba:	f006 fdf2 	bl	7ba2 <TEE_Panic>
/home/st/Desktop/Raspbian-optee/raspbian-optee/raspbian-tee1/raspbian-tee/optee_os/lib/libutee/tee_api_objects.c:50
     fbe:	6822      	ldr	r2, [r4, #0]
     fc0:	4b05      	ldr	r3, [pc, #20]	; (fd8 <TEE_GetObjectInfo+0x28>)
     fc2:	429a      	cmp	r2, r3
     fc4:	d106      	bne.n	fd4 <TEE_GetObjectInfo+0x24>
/home/st/Desktop/Raspbian-optee/raspbian-optee/raspbian-tee1/raspbian-tee/optee_os/lib/libutee/tee_api_objects.c:51
     fc6:	2300      	movs	r3, #0
     fc8:	6063      	str	r3, [r4, #4]
/home/st/Desktop/Raspbian-optee/raspbian-optee/raspbian-tee1/raspbian-tee/optee_os/lib/libutee/tee_api_objects.c:52
     fca:	60a3      	str	r3, [r4, #8]
/home/st/Desktop/Raspbian-optee/raspbian-optee/raspbian-tee1/raspbian-tee/optee_os/lib/libutee/tee_api_objects.c:53
     fcc:	60e3      	str	r3, [r4, #12]
/home/st/Desktop/Raspbian-optee/raspbian-optee/raspbian-tee1/raspbian-tee/optee_os/lib/libutee/tee_api_objects.c:54
     fce:	6123      	str	r3, [r4, #16]
/home/st/Desktop/Raspbian-optee/raspbian-optee/raspbian-tee1/raspbian-tee/optee_os/lib/libutee/tee_api_objects.c:55
     fd0:	6163      	str	r3, [r4, #20]
/home/st/Desktop/Raspbian-optee/raspbian-optee/raspbian-tee1/raspbian-tee/optee_os/lib/libutee/tee_api_objects.c:56
     fd2:	61a3      	str	r3, [r4, #24]
/home/st/Desktop/Raspbian-optee/raspbian-optee/raspbian-tee1/raspbian-tee/optee_os/lib/libutee/tee_api_objects.c:58
     fd4:	bd10      	pop	{r4, pc}
     fd6:	bf00      	nop
     fd8:	a00000be 	.word	0xa00000be

00000fdc <TEE_GetObjectInfo1>:
TEE_GetObjectInfo1():
/home/st/Desktop/Raspbian-optee/raspbian-optee/raspbian-tee1/raspbian-tee/optee_os/lib/libutee/tee_api_objects.c:61
     fdc:	b510      	push	{r4, lr}
/home/st/Desktop/Raspbian-optee/raspbian-optee/raspbian-tee1/raspbian-tee/optee_os/lib/libutee/tee_api_objects.c:64
     fde:	f002 e90e 	blx	31fc <utee_cryp_obj_get_info>
/home/st/Desktop/Raspbian-optee/raspbian-optee/raspbian-tee1/raspbian-tee/optee_os/lib/libutee/tee_api_objects.c:66
     fe2:	4604      	mov	r4, r0
     fe4:	b130      	cbz	r0, ff4 <TEE_GetObjectInfo1+0x18>
/home/st/Desktop/Raspbian-optee/raspbian-optee/raspbian-tee1/raspbian-tee/optee_os/lib/libutee/tee_api_objects.c:66 (discriminator 1)
     fe6:	4b04      	ldr	r3, [pc, #16]	; (ff8 <TEE_GetObjectInfo1+0x1c>)
     fe8:	f020 0202 	bic.w	r2, r0, #2
     fec:	429a      	cmp	r2, r3
     fee:	d001      	beq.n	ff4 <TEE_GetObjectInfo1+0x18>
/home/st/Desktop/Raspbian-optee/raspbian-optee/raspbian-tee1/raspbian-tee/optee_os/lib/libutee/tee_api_objects.c:69
     ff0:	f006 fdd7 	bl	7ba2 <TEE_Panic>
/home/st/Desktop/Raspbian-optee/raspbian-optee/raspbian-tee1/raspbian-tee/optee_os/lib/libutee/tee_api_objects.c:72
     ff4:	4620      	mov	r0, r4
     ff6:	bd10      	pop	{r4, pc}
     ff8:	f0100001 	.word	0xf0100001

00000ffc <TEE_RestrictObjectUsage1>:
TEE_RestrictObjectUsage1():
/home/st/Desktop/Raspbian-optee/raspbian-optee/raspbian-tee1/raspbian-tee/optee_os/lib/libutee/tee_api_objects.c:96
     ffc:	b510      	push	{r4, lr}
/home/st/Desktop/Raspbian-optee/raspbian-optee/raspbian-tee1/raspbian-tee/optee_os/lib/libutee/tee_api_objects.c:99
     ffe:	f002 e908 	blx	3210 <utee_cryp_obj_restrict_usage>
/home/st/Desktop/Raspbian-optee/raspbian-optee/raspbian-tee1/raspbian-tee/optee_os/lib/libutee/tee_api_objects.c:101
    1002:	4604      	mov	r4, r0
    1004:	b130      	cbz	r0, 1014 <TEE_RestrictObjectUsage1+0x18>
/home/st/Desktop/Raspbian-optee/raspbian-optee/raspbian-tee1/raspbian-tee/optee_os/lib/libutee/tee_api_objects.c:101 (discriminator 1)
    1006:	4b04      	ldr	r3, [pc, #16]	; (1018 <TEE_RestrictObjectUsage1+0x1c>)
    1008:	f020 0202 	bic.w	r2, r0, #2
    100c:	429a      	cmp	r2, r3
    100e:	d001      	beq.n	1014 <TEE_RestrictObjectUsage1+0x18>
/home/st/Desktop/Raspbian-optee/raspbian-optee/raspbian-tee1/raspbian-tee/optee_os/lib/libutee/tee_api_objects.c:104
    1010:	f006 fdc7 	bl	7ba2 <TEE_Panic>
/home/st/Desktop/Raspbian-optee/raspbian-optee/raspbian-tee1/raspbian-tee/optee_os/lib/libutee/tee_api_objects.c:107
    1014:	4620      	mov	r0, r4
    1016:	bd10      	pop	{r4, pc}
    1018:	f0100001 	.word	0xf0100001

0000101c <TEE_RestrictObjectUsage>:
TEE_RestrictObjectUsage():
/home/st/Desktop/Raspbian-optee/raspbian-optee/raspbian-tee1/raspbian-tee/optee_os/lib/libutee/tee_api_objects.c:81
    101c:	b530      	push	{r4, r5, lr}
    101e:	460d      	mov	r5, r1
    1020:	4604      	mov	r4, r0
    1022:	b089      	sub	sp, #36	; 0x24
/home/st/Desktop/Raspbian-optee/raspbian-optee/raspbian-tee1/raspbian-tee/optee_os/lib/libutee/tee_api_objects.c:85
    1024:	a901      	add	r1, sp, #4
    1026:	f002 e8ea 	blx	31fc <utee_cryp_obj_get_info>
/home/st/Desktop/Raspbian-optee/raspbian-optee/raspbian-tee1/raspbian-tee/optee_os/lib/libutee/tee_api_objects.c:86
    102a:	4b06      	ldr	r3, [pc, #24]	; (1044 <TEE_RestrictObjectUsage+0x28>)
    102c:	9a01      	ldr	r2, [sp, #4]
    102e:	429a      	cmp	r2, r3
    1030:	d006      	beq.n	1040 <TEE_RestrictObjectUsage+0x24>
/home/st/Desktop/Raspbian-optee/raspbian-optee/raspbian-tee1/raspbian-tee/optee_os/lib/libutee/tee_api_objects.c:89
    1032:	4629      	mov	r1, r5
    1034:	4620      	mov	r0, r4
    1036:	f7ff ffe1 	bl	ffc <TEE_RestrictObjectUsage1>
/home/st/Desktop/Raspbian-optee/raspbian-optee/raspbian-tee1/raspbian-tee/optee_os/lib/libutee/tee_api_objects.c:91
    103a:	b108      	cbz	r0, 1040 <TEE_RestrictObjectUsage+0x24>
/home/st/Desktop/Raspbian-optee/raspbian-optee/raspbian-tee1/raspbian-tee/optee_os/lib/libutee/tee_api_objects.c:92
    103c:	f006 fdb1 	bl	7ba2 <TEE_Panic>
/home/st/Desktop/Raspbian-optee/raspbian-optee/raspbian-tee1/raspbian-tee/optee_os/lib/libutee/tee_api_objects.c:93
    1040:	b009      	add	sp, #36	; 0x24
    1042:	bd30      	pop	{r4, r5, pc}
    1044:	a00000be 	.word	0xa00000be

00001048 <TEE_GetObjectBufferAttribute>:
TEE_GetObjectBufferAttribute():
/home/st/Desktop/Raspbian-optee/raspbian-optee/raspbian-tee1/raspbian-tee/optee_os/lib/libutee/tee_api_objects.c:112
    1048:	e92d 41f0 	stmdb	sp!, {r4, r5, r6, r7, r8, lr}
    104c:	460e      	mov	r6, r1
    104e:	4607      	mov	r7, r0
    1050:	b08a      	sub	sp, #40	; 0x28
    1052:	4690      	mov	r8, r2
/home/st/Desktop/Raspbian-optee/raspbian-optee/raspbian-tee1/raspbian-tee/optee_os/lib/libutee/tee_api_objects.c:117
    1054:	a903      	add	r1, sp, #12
/home/st/Desktop/Raspbian-optee/raspbian-optee/raspbian-tee1/raspbian-tee/optee_os/lib/libutee/tee_api_objects.c:112
    1056:	461d      	mov	r5, r3
/home/st/Desktop/Raspbian-optee/raspbian-optee/raspbian-tee1/raspbian-tee/optee_os/lib/libutee/tee_api_objects.c:117
    1058:	f002 e8d0 	blx	31fc <utee_cryp_obj_get_info>
/home/st/Desktop/Raspbian-optee/raspbian-optee/raspbian-tee1/raspbian-tee/optee_os/lib/libutee/tee_api_objects.c:118
    105c:	4604      	mov	r4, r0
    105e:	b970      	cbnz	r0, 107e <TEE_GetObjectBufferAttribute+0x36>
/home/st/Desktop/Raspbian-optee/raspbian-optee/raspbian-tee1/raspbian-tee/optee_os/lib/libutee/tee_api_objects.c:122
    1060:	00b3      	lsls	r3, r6, #2
    1062:	d422      	bmi.n	10aa <TEE_GetObjectBufferAttribute+0x62>
/home/st/Desktop/Raspbian-optee/raspbian-optee/raspbian-tee1/raspbian-tee/optee_os/lib/libutee/tee_api_objects.c:127
    1064:	682b      	ldr	r3, [r5, #0]
/home/st/Desktop/Raspbian-optee/raspbian-optee/raspbian-tee1/raspbian-tee/optee_os/lib/libutee/tee_api_objects.c:128
    1066:	4642      	mov	r2, r8
/home/st/Desktop/Raspbian-optee/raspbian-optee/raspbian-tee1/raspbian-tee/optee_os/lib/libutee/tee_api_objects.c:127
    1068:	e9cd 3000 	strd	r3, r0, [sp]
/home/st/Desktop/Raspbian-optee/raspbian-optee/raspbian-tee1/raspbian-tee/optee_os/lib/libutee/tee_api_objects.c:128
    106c:	4631      	mov	r1, r6
    106e:	466b      	mov	r3, sp
    1070:	4638      	mov	r0, r7
    1072:	f002 e8d8 	blx	3224 <utee_cryp_obj_get_attr>
/home/st/Desktop/Raspbian-optee/raspbian-optee/raspbian-tee1/raspbian-tee/optee_os/lib/libutee/tee_api_objects.c:130
    1076:	9b00      	ldr	r3, [sp, #0]
/home/st/Desktop/Raspbian-optee/raspbian-optee/raspbian-tee1/raspbian-tee/optee_os/lib/libutee/tee_api_objects.c:133
    1078:	4604      	mov	r4, r0
/home/st/Desktop/Raspbian-optee/raspbian-optee/raspbian-tee1/raspbian-tee/optee_os/lib/libutee/tee_api_objects.c:130
    107a:	602b      	str	r3, [r5, #0]
/home/st/Desktop/Raspbian-optee/raspbian-optee/raspbian-tee1/raspbian-tee/optee_os/lib/libutee/tee_api_objects.c:133
    107c:	b188      	cbz	r0, 10a2 <TEE_GetObjectBufferAttribute+0x5a>
    107e:	4b0c      	ldr	r3, [pc, #48]	; (10b0 <TEE_GetObjectBufferAttribute+0x68>)
    1080:	429c      	cmp	r4, r3
    1082:	d00e      	beq.n	10a2 <TEE_GetObjectBufferAttribute+0x5a>
/home/st/Desktop/Raspbian-optee/raspbian-optee/raspbian-tee1/raspbian-tee/optee_os/lib/libutee/tee_api_objects.c:134
    1084:	3308      	adds	r3, #8
    1086:	429c      	cmp	r4, r3
    1088:	d00b      	beq.n	10a2 <TEE_GetObjectBufferAttribute+0x5a>
/home/st/Desktop/Raspbian-optee/raspbian-optee/raspbian-tee1/raspbian-tee/optee_os/lib/libutee/tee_api_objects.c:135
    108a:	f1a3 637e 	sub.w	r3, r3, #266338304	; 0xfe00000
    108e:	f1a3 130f 	sub.w	r3, r3, #983055	; 0xf000f
    1092:	429c      	cmp	r4, r3
    1094:	d005      	beq.n	10a2 <TEE_GetObjectBufferAttribute+0x5a>
/home/st/Desktop/Raspbian-optee/raspbian-optee/raspbian-tee1/raspbian-tee/optee_os/lib/libutee/tee_api_objects.c:136
    1096:	3302      	adds	r3, #2
    1098:	429c      	cmp	r4, r3
    109a:	d002      	beq.n	10a2 <TEE_GetObjectBufferAttribute+0x5a>
/home/st/Desktop/Raspbian-optee/raspbian-optee/raspbian-tee1/raspbian-tee/optee_os/lib/libutee/tee_api_objects.c:138
    109c:	4620      	mov	r0, r4
    109e:	f006 fd80 	bl	7ba2 <TEE_Panic>
/home/st/Desktop/Raspbian-optee/raspbian-optee/raspbian-tee1/raspbian-tee/optee_os/lib/libutee/tee_api_objects.c:141
    10a2:	4620      	mov	r0, r4
    10a4:	b00a      	add	sp, #40	; 0x28
    10a6:	e8bd 81f0 	ldmia.w	sp!, {r4, r5, r6, r7, r8, pc}
/home/st/Desktop/Raspbian-optee/raspbian-optee/raspbian-tee1/raspbian-tee/optee_os/lib/libutee/tee_api_objects.c:123
    10aa:	4c02      	ldr	r4, [pc, #8]	; (10b4 <TEE_GetObjectBufferAttribute+0x6c>)
    10ac:	e7f6      	b.n	109c <TEE_GetObjectBufferAttribute+0x54>
    10ae:	bf00      	nop
    10b0:	ffff0008 	.word	0xffff0008
    10b4:	ffff0006 	.word	0xffff0006

000010b8 <TEE_GetObjectValueAttribute>:
TEE_GetObjectValueAttribute():
/home/st/Desktop/Raspbian-optee/raspbian-optee/raspbian-tee1/raspbian-tee/optee_os/lib/libutee/tee_api_objects.c:146
    10b8:	e92d 41f0 	stmdb	sp!, {r4, r5, r6, r7, r8, lr}
    10bc:	460f      	mov	r7, r1
    10be:	4680      	mov	r8, r0
    10c0:	b08c      	sub	sp, #48	; 0x30
    10c2:	4616      	mov	r6, r2
/home/st/Desktop/Raspbian-optee/raspbian-optee/raspbian-tee1/raspbian-tee/optee_os/lib/libutee/tee_api_objects.c:152
    10c4:	a905      	add	r1, sp, #20
/home/st/Desktop/Raspbian-optee/raspbian-optee/raspbian-tee1/raspbian-tee/optee_os/lib/libutee/tee_api_objects.c:150
    10c6:	2208      	movs	r2, #8
/home/st/Desktop/Raspbian-optee/raspbian-optee/raspbian-tee1/raspbian-tee/optee_os/lib/libutee/tee_api_objects.c:146
    10c8:	461d      	mov	r5, r3
/home/st/Desktop/Raspbian-optee/raspbian-optee/raspbian-tee1/raspbian-tee/optee_os/lib/libutee/tee_api_objects.c:150
    10ca:	2300      	movs	r3, #0
    10cc:	e9cd 2300 	strd	r2, r3, [sp]
/home/st/Desktop/Raspbian-optee/raspbian-optee/raspbian-tee1/raspbian-tee/optee_os/lib/libutee/tee_api_objects.c:152
    10d0:	f002 e894 	blx	31fc <utee_cryp_obj_get_info>
/home/st/Desktop/Raspbian-optee/raspbian-optee/raspbian-tee1/raspbian-tee/optee_os/lib/libutee/tee_api_objects.c:153
    10d4:	4604      	mov	r4, r0
    10d6:	b948      	cbnz	r0, 10ec <TEE_GetObjectValueAttribute+0x34>
/home/st/Desktop/Raspbian-optee/raspbian-optee/raspbian-tee1/raspbian-tee/optee_os/lib/libutee/tee_api_objects.c:157
    10d8:	00bb      	lsls	r3, r7, #2
    10da:	d527      	bpl.n	112c <TEE_GetObjectValueAttribute+0x74>
/home/st/Desktop/Raspbian-optee/raspbian-optee/raspbian-tee1/raspbian-tee/optee_os/lib/libutee/tee_api_objects.c:162
    10dc:	466b      	mov	r3, sp
    10de:	aa03      	add	r2, sp, #12
    10e0:	4639      	mov	r1, r7
    10e2:	4640      	mov	r0, r8
    10e4:	f002 e89e 	blx	3224 <utee_cryp_obj_get_attr>
/home/st/Desktop/Raspbian-optee/raspbian-optee/raspbian-tee1/raspbian-tee/optee_os/lib/libutee/tee_api_objects.c:166
    10e8:	4604      	mov	r4, r0
    10ea:	b158      	cbz	r0, 1104 <TEE_GetObjectValueAttribute+0x4c>
    10ec:	4b10      	ldr	r3, [pc, #64]	; (1130 <TEE_GetObjectValueAttribute+0x78>)
    10ee:	429c      	cmp	r4, r3
    10f0:	d008      	beq.n	1104 <TEE_GetObjectValueAttribute+0x4c>
/home/st/Desktop/Raspbian-optee/raspbian-optee/raspbian-tee1/raspbian-tee/optee_os/lib/libutee/tee_api_objects.c:167
    10f2:	4b10      	ldr	r3, [pc, #64]	; (1134 <TEE_GetObjectValueAttribute+0x7c>)
    10f4:	429c      	cmp	r4, r3
    10f6:	d005      	beq.n	1104 <TEE_GetObjectValueAttribute+0x4c>
/home/st/Desktop/Raspbian-optee/raspbian-optee/raspbian-tee1/raspbian-tee/optee_os/lib/libutee/tee_api_objects.c:168
    10f8:	3302      	adds	r3, #2
    10fa:	429c      	cmp	r4, r3
    10fc:	d002      	beq.n	1104 <TEE_GetObjectValueAttribute+0x4c>
/home/st/Desktop/Raspbian-optee/raspbian-optee/raspbian-tee1/raspbian-tee/optee_os/lib/libutee/tee_api_objects.c:170
    10fe:	4620      	mov	r0, r4
    1100:	f006 fd4f 	bl	7ba2 <TEE_Panic>
/home/st/Desktop/Raspbian-optee/raspbian-optee/raspbian-tee1/raspbian-tee/optee_os/lib/libutee/tee_api_objects.c:172
    1104:	e9dd 0100 	ldrd	r0, r1, [sp]
    1108:	2900      	cmp	r1, #0
    110a:	bf08      	it	eq
    110c:	2808      	cmpeq	r0, #8
    110e:	d002      	beq.n	1116 <TEE_GetObjectValueAttribute+0x5e>
/home/st/Desktop/Raspbian-optee/raspbian-optee/raspbian-tee1/raspbian-tee/optee_os/lib/libutee/tee_api_objects.c:173
    1110:	2000      	movs	r0, #0
    1112:	f006 fd46 	bl	7ba2 <TEE_Panic>
/home/st/Desktop/Raspbian-optee/raspbian-optee/raspbian-tee1/raspbian-tee/optee_os/lib/libutee/tee_api_objects.c:175
    1116:	b92c      	cbnz	r4, 1124 <TEE_GetObjectValueAttribute+0x6c>
/home/st/Desktop/Raspbian-optee/raspbian-optee/raspbian-tee1/raspbian-tee/optee_os/lib/libutee/tee_api_objects.c:176
    1118:	b10e      	cbz	r6, 111e <TEE_GetObjectValueAttribute+0x66>
/home/st/Desktop/Raspbian-optee/raspbian-optee/raspbian-tee1/raspbian-tee/optee_os/lib/libutee/tee_api_objects.c:177
    111a:	9b03      	ldr	r3, [sp, #12]
    111c:	6033      	str	r3, [r6, #0]
/home/st/Desktop/Raspbian-optee/raspbian-optee/raspbian-tee1/raspbian-tee/optee_os/lib/libutee/tee_api_objects.c:178
    111e:	b10d      	cbz	r5, 1124 <TEE_GetObjectValueAttribute+0x6c>
/home/st/Desktop/Raspbian-optee/raspbian-optee/raspbian-tee1/raspbian-tee/optee_os/lib/libutee/tee_api_objects.c:179
    1120:	9b04      	ldr	r3, [sp, #16]
    1122:	602b      	str	r3, [r5, #0]
/home/st/Desktop/Raspbian-optee/raspbian-optee/raspbian-tee1/raspbian-tee/optee_os/lib/libutee/tee_api_objects.c:183
    1124:	4620      	mov	r0, r4
    1126:	b00c      	add	sp, #48	; 0x30
    1128:	e8bd 81f0 	ldmia.w	sp!, {r4, r5, r6, r7, r8, pc}
/home/st/Desktop/Raspbian-optee/raspbian-optee/raspbian-tee1/raspbian-tee/optee_os/lib/libutee/tee_api_objects.c:158
    112c:	4c02      	ldr	r4, [pc, #8]	; (1138 <TEE_GetObjectValueAttribute+0x80>)
    112e:	e7e6      	b.n	10fe <TEE_GetObjectValueAttribute+0x46>
    1130:	ffff0008 	.word	0xffff0008
    1134:	f0100001 	.word	0xf0100001
    1138:	ffff0006 	.word	0xffff0006

0000113c <TEE_CloseObject>:
TEE_CloseObject():
/home/st/Desktop/Raspbian-optee/raspbian-optee/raspbian-tee1/raspbian-tee/optee_os/lib/libutee/tee_api_objects.c:186
    113c:	b508      	push	{r3, lr}
/home/st/Desktop/Raspbian-optee/raspbian-optee/raspbian-tee1/raspbian-tee/optee_os/lib/libutee/tee_api_objects.c:189
    113e:	b130      	cbz	r0, 114e <TEE_CloseObject+0x12>
/home/st/Desktop/Raspbian-optee/raspbian-optee/raspbian-tee1/raspbian-tee/optee_os/lib/libutee/tee_api_objects.c:192
    1140:	f002 e884 	blx	324c <utee_cryp_obj_close>
/home/st/Desktop/Raspbian-optee/raspbian-optee/raspbian-tee1/raspbian-tee/optee_os/lib/libutee/tee_api_objects.c:193
    1144:	b118      	cbz	r0, 114e <TEE_CloseObject+0x12>
/home/st/Desktop/Raspbian-optee/raspbian-optee/raspbian-tee1/raspbian-tee/optee_os/lib/libutee/tee_api_objects.c:195
    1146:	e8bd 4008 	ldmia.w	sp!, {r3, lr}
/home/st/Desktop/Raspbian-optee/raspbian-optee/raspbian-tee1/raspbian-tee/optee_os/lib/libutee/tee_api_objects.c:194
    114a:	f006 bd2a 	b.w	7ba2 <TEE_Panic>
/home/st/Desktop/Raspbian-optee/raspbian-optee/raspbian-tee1/raspbian-tee/optee_os/lib/libutee/tee_api_objects.c:195
    114e:	bd08      	pop	{r3, pc}

00001150 <TEE_AllocateTransientObject>:
TEE_AllocateTransientObject():
/home/st/Desktop/Raspbian-optee/raspbian-optee/raspbian-tee1/raspbian-tee/optee_os/lib/libutee/tee_api_objects.c:202
    1150:	b537      	push	{r0, r1, r2, r4, r5, lr}
    1152:	4615      	mov	r5, r2
/home/st/Desktop/Raspbian-optee/raspbian-optee/raspbian-tee1/raspbian-tee/optee_os/lib/libutee/tee_api_objects.c:206
    1154:	aa01      	add	r2, sp, #4
    1156:	f002 e870 	blx	3238 <utee_cryp_obj_alloc>
/home/st/Desktop/Raspbian-optee/raspbian-optee/raspbian-tee1/raspbian-tee/optee_os/lib/libutee/tee_api_objects.c:208
    115a:	4604      	mov	r4, r0
    115c:	b150      	cbz	r0, 1174 <TEE_AllocateTransientObject+0x24>
/home/st/Desktop/Raspbian-optee/raspbian-optee/raspbian-tee1/raspbian-tee/optee_os/lib/libutee/tee_api_objects.c:208 (discriminator 1)
    115e:	4b07      	ldr	r3, [pc, #28]	; (117c <TEE_AllocateTransientObject+0x2c>)
    1160:	4298      	cmp	r0, r3
    1162:	d004      	beq.n	116e <TEE_AllocateTransientObject+0x1e>
/home/st/Desktop/Raspbian-optee/raspbian-optee/raspbian-tee1/raspbian-tee/optee_os/lib/libutee/tee_api_objects.c:209
    1164:	3b02      	subs	r3, #2
    1166:	4298      	cmp	r0, r3
    1168:	d001      	beq.n	116e <TEE_AllocateTransientObject+0x1e>
/home/st/Desktop/Raspbian-optee/raspbian-optee/raspbian-tee1/raspbian-tee/optee_os/lib/libutee/tee_api_objects.c:211
    116a:	f006 fd1a 	bl	7ba2 <TEE_Panic>
/home/st/Desktop/Raspbian-optee/raspbian-optee/raspbian-tee1/raspbian-tee/optee_os/lib/libutee/tee_api_objects.c:217
    116e:	4620      	mov	r0, r4
    1170:	b003      	add	sp, #12
    1172:	bd30      	pop	{r4, r5, pc}
/home/st/Desktop/Raspbian-optee/raspbian-optee/raspbian-tee1/raspbian-tee/optee_os/lib/libutee/tee_api_objects.c:214
    1174:	9b01      	ldr	r3, [sp, #4]
    1176:	602b      	str	r3, [r5, #0]
    1178:	e7f9      	b.n	116e <TEE_AllocateTransientObject+0x1e>
    117a:	bf00      	nop
    117c:	ffff000c 	.word	0xffff000c

00001180 <TEE_FreeTransientObject>:
TEE_FreeTransientObject():
/home/st/Desktop/Raspbian-optee/raspbian-optee/raspbian-tee1/raspbian-tee/optee_os/lib/libutee/tee_api_objects.c:220
    1180:	b510      	push	{r4, lr}
/home/st/Desktop/Raspbian-optee/raspbian-optee/raspbian-tee1/raspbian-tee/optee_os/lib/libutee/tee_api_objects.c:224
    1182:	4604      	mov	r4, r0
/home/st/Desktop/Raspbian-optee/raspbian-optee/raspbian-tee1/raspbian-tee/optee_os/lib/libutee/tee_api_objects.c:220
    1184:	b088      	sub	sp, #32
/home/st/Desktop/Raspbian-optee/raspbian-optee/raspbian-tee1/raspbian-tee/optee_os/lib/libutee/tee_api_objects.c:224
    1186:	b188      	cbz	r0, 11ac <TEE_FreeTransientObject+0x2c>
/home/st/Desktop/Raspbian-optee/raspbian-optee/raspbian-tee1/raspbian-tee/optee_os/lib/libutee/tee_api_objects.c:227
    1188:	a901      	add	r1, sp, #4
    118a:	f002 e838 	blx	31fc <utee_cryp_obj_get_info>
/home/st/Desktop/Raspbian-optee/raspbian-optee/raspbian-tee1/raspbian-tee/optee_os/lib/libutee/tee_api_objects.c:228
    118e:	b108      	cbz	r0, 1194 <TEE_FreeTransientObject+0x14>
/home/st/Desktop/Raspbian-optee/raspbian-optee/raspbian-tee1/raspbian-tee/optee_os/lib/libutee/tee_api_objects.c:229
    1190:	f006 fd07 	bl	7ba2 <TEE_Panic>
/home/st/Desktop/Raspbian-optee/raspbian-optee/raspbian-tee1/raspbian-tee/optee_os/lib/libutee/tee_api_objects.c:231
    1194:	9b07      	ldr	r3, [sp, #28]
    1196:	03db      	lsls	r3, r3, #15
    1198:	d502      	bpl.n	11a0 <TEE_FreeTransientObject+0x20>
/home/st/Desktop/Raspbian-optee/raspbian-optee/raspbian-tee1/raspbian-tee/optee_os/lib/libutee/tee_api_objects.c:232
    119a:	2000      	movs	r0, #0
    119c:	f006 fd01 	bl	7ba2 <TEE_Panic>
/home/st/Desktop/Raspbian-optee/raspbian-optee/raspbian-tee1/raspbian-tee/optee_os/lib/libutee/tee_api_objects.c:234
    11a0:	4620      	mov	r0, r4
    11a2:	f002 e854 	blx	324c <utee_cryp_obj_close>
/home/st/Desktop/Raspbian-optee/raspbian-optee/raspbian-tee1/raspbian-tee/optee_os/lib/libutee/tee_api_objects.c:235
    11a6:	b108      	cbz	r0, 11ac <TEE_FreeTransientObject+0x2c>
/home/st/Desktop/Raspbian-optee/raspbian-optee/raspbian-tee1/raspbian-tee/optee_os/lib/libutee/tee_api_objects.c:236
    11a8:	f006 fcfb 	bl	7ba2 <TEE_Panic>
/home/st/Desktop/Raspbian-optee/raspbian-optee/raspbian-tee1/raspbian-tee/optee_os/lib/libutee/tee_api_objects.c:237
    11ac:	b008      	add	sp, #32
    11ae:	bd10      	pop	{r4, pc}

000011b0 <TEE_ResetTransientObject>:
TEE_ResetTransientObject():
/home/st/Desktop/Raspbian-optee/raspbian-optee/raspbian-tee1/raspbian-tee/optee_os/lib/libutee/tee_api_objects.c:240
    11b0:	b510      	push	{r4, lr}
/home/st/Desktop/Raspbian-optee/raspbian-optee/raspbian-tee1/raspbian-tee/optee_os/lib/libutee/tee_api_objects.c:244
    11b2:	4604      	mov	r4, r0
/home/st/Desktop/Raspbian-optee/raspbian-optee/raspbian-tee1/raspbian-tee/optee_os/lib/libutee/tee_api_objects.c:240
    11b4:	b088      	sub	sp, #32
/home/st/Desktop/Raspbian-optee/raspbian-optee/raspbian-tee1/raspbian-tee/optee_os/lib/libutee/tee_api_objects.c:244
    11b6:	b188      	cbz	r0, 11dc <TEE_ResetTransientObject+0x2c>
/home/st/Desktop/Raspbian-optee/raspbian-optee/raspbian-tee1/raspbian-tee/optee_os/lib/libutee/tee_api_objects.c:247
    11b8:	a901      	add	r1, sp, #4
    11ba:	f002 e820 	blx	31fc <utee_cryp_obj_get_info>
/home/st/Desktop/Raspbian-optee/raspbian-optee/raspbian-tee1/raspbian-tee/optee_os/lib/libutee/tee_api_objects.c:248
    11be:	b108      	cbz	r0, 11c4 <TEE_ResetTransientObject+0x14>
/home/st/Desktop/Raspbian-optee/raspbian-optee/raspbian-tee1/raspbian-tee/optee_os/lib/libutee/tee_api_objects.c:249
    11c0:	f006 fcef 	bl	7ba2 <TEE_Panic>
/home/st/Desktop/Raspbian-optee/raspbian-optee/raspbian-tee1/raspbian-tee/optee_os/lib/libutee/tee_api_objects.c:251
    11c4:	9b07      	ldr	r3, [sp, #28]
    11c6:	03db      	lsls	r3, r3, #15
    11c8:	d502      	bpl.n	11d0 <TEE_ResetTransientObject+0x20>
/home/st/Desktop/Raspbian-optee/raspbian-optee/raspbian-tee1/raspbian-tee/optee_os/lib/libutee/tee_api_objects.c:252
    11ca:	2000      	movs	r0, #0
    11cc:	f006 fce9 	bl	7ba2 <TEE_Panic>
/home/st/Desktop/Raspbian-optee/raspbian-optee/raspbian-tee1/raspbian-tee/optee_os/lib/libutee/tee_api_objects.c:254
    11d0:	4620      	mov	r0, r4
    11d2:	f002 e846 	blx	3260 <utee_cryp_obj_reset>
/home/st/Desktop/Raspbian-optee/raspbian-optee/raspbian-tee1/raspbian-tee/optee_os/lib/libutee/tee_api_objects.c:255
    11d6:	b108      	cbz	r0, 11dc <TEE_ResetTransientObject+0x2c>
/home/st/Desktop/Raspbian-optee/raspbian-optee/raspbian-tee1/raspbian-tee/optee_os/lib/libutee/tee_api_objects.c:256
    11d8:	f006 fce3 	bl	7ba2 <TEE_Panic>
/home/st/Desktop/Raspbian-optee/raspbian-optee/raspbian-tee1/raspbian-tee/optee_os/lib/libutee/tee_api_objects.c:257
    11dc:	b008      	add	sp, #32
    11de:	bd10      	pop	{r4, pc}

000011e0 <TEE_PopulateTransientObject>:
TEE_PopulateTransientObject():
/home/st/Desktop/Raspbian-optee/raspbian-optee/raspbian-tee1/raspbian-tee/optee_os/lib/libutee/tee_api_objects.c:262
    11e0:	e92d 41f0 	stmdb	sp!, {r4, r5, r6, r7, r8, lr}
/home/st/Desktop/Raspbian-optee/raspbian-optee/raspbian-tee1/raspbian-tee/optee_os/lib/libutee/tee_api_objects.c:265
    11e4:	2318      	movs	r3, #24
/home/st/Desktop/Raspbian-optee/raspbian-optee/raspbian-tee1/raspbian-tee/optee_os/lib/libutee/tee_api_objects.c:262
    11e6:	4614      	mov	r4, r2
    11e8:	b088      	sub	sp, #32
/home/st/Desktop/Raspbian-optee/raspbian-optee/raspbian-tee1/raspbian-tee/optee_os/lib/libutee/tee_api_objects.c:265
    11ea:	466a      	mov	r2, sp
/home/st/Desktop/Raspbian-optee/raspbian-optee/raspbian-tee1/raspbian-tee/optee_os/lib/libutee/tee_api_objects.c:262
    11ec:	af00      	add	r7, sp, #0
    11ee:	460e      	mov	r6, r1
/home/st/Desktop/Raspbian-optee/raspbian-optee/raspbian-tee1/raspbian-tee/optee_os/lib/libutee/tee_api_objects.c:267
    11f0:	1d39      	adds	r1, r7, #4
/home/st/Desktop/Raspbian-optee/raspbian-optee/raspbian-tee1/raspbian-tee/optee_os/lib/libutee/tee_api_objects.c:262
    11f2:	4605      	mov	r5, r0
/home/st/Desktop/Raspbian-optee/raspbian-optee/raspbian-tee1/raspbian-tee/optee_os/lib/libutee/tee_api_objects.c:265
    11f4:	fb03 2314 	mls	r3, r3, r4, r2
    11f8:	469d      	mov	sp, r3
    11fa:	46e8      	mov	r8, sp
/home/st/Desktop/Raspbian-optee/raspbian-optee/raspbian-tee1/raspbian-tee/optee_os/lib/libutee/tee_api_objects.c:267
    11fc:	f001 effe 	blx	31fc <utee_cryp_obj_get_info>
/home/st/Desktop/Raspbian-optee/raspbian-optee/raspbian-tee1/raspbian-tee/optee_os/lib/libutee/tee_api_objects.c:268
    1200:	b108      	cbz	r0, 1206 <TEE_PopulateTransientObject+0x26>
/home/st/Desktop/Raspbian-optee/raspbian-optee/raspbian-tee1/raspbian-tee/optee_os/lib/libutee/tee_api_objects.c:269
    1202:	f006 fcce 	bl	7ba2 <TEE_Panic>
/home/st/Desktop/Raspbian-optee/raspbian-optee/raspbian-tee1/raspbian-tee/optee_os/lib/libutee/tee_api_objects.c:272
    1206:	69fb      	ldr	r3, [r7, #28]
    1208:	03da      	lsls	r2, r3, #15
    120a:	d502      	bpl.n	1212 <TEE_PopulateTransientObject+0x32>
/home/st/Desktop/Raspbian-optee/raspbian-optee/raspbian-tee1/raspbian-tee/optee_os/lib/libutee/tee_api_objects.c:273
    120c:	2000      	movs	r0, #0
    120e:	f006 fcc8 	bl	7ba2 <TEE_Panic>
/home/st/Desktop/Raspbian-optee/raspbian-optee/raspbian-tee1/raspbian-tee/optee_os/lib/libutee/tee_api_objects.c:276
    1212:	69fb      	ldr	r3, [r7, #28]
    1214:	039b      	lsls	r3, r3, #14
    1216:	d502      	bpl.n	121e <TEE_PopulateTransientObject+0x3e>
/home/st/Desktop/Raspbian-optee/raspbian-optee/raspbian-tee1/raspbian-tee/optee_os/lib/libutee/tee_api_objects.c:277
    1218:	2000      	movs	r0, #0
    121a:	f006 fcc2 	bl	7ba2 <TEE_Panic>
/home/st/Desktop/Raspbian-optee/raspbian-optee/raspbian-tee1/raspbian-tee/optee_os/lib/libutee/tee_api_objects.c:279
    121e:	4622      	mov	r2, r4
    1220:	4631      	mov	r1, r6
    1222:	4640      	mov	r0, r8
    1224:	f7ff fea8 	bl	f78 <__utee_from_attr>
/home/st/Desktop/Raspbian-optee/raspbian-optee/raspbian-tee1/raspbian-tee/optee_os/lib/libutee/tee_api_objects.c:280
    1228:	4622      	mov	r2, r4
    122a:	4641      	mov	r1, r8
    122c:	4628      	mov	r0, r5
    122e:	f002 e822 	blx	3274 <utee_cryp_obj_populate>
/home/st/Desktop/Raspbian-optee/raspbian-optee/raspbian-tee1/raspbian-tee/optee_os/lib/libutee/tee_api_objects.c:281
    1232:	4604      	mov	r4, r0
    1234:	b120      	cbz	r0, 1240 <TEE_PopulateTransientObject+0x60>
/home/st/Desktop/Raspbian-optee/raspbian-optee/raspbian-tee1/raspbian-tee/optee_os/lib/libutee/tee_api_objects.c:281 (discriminator 1)
    1236:	4b05      	ldr	r3, [pc, #20]	; (124c <TEE_PopulateTransientObject+0x6c>)
    1238:	4298      	cmp	r0, r3
    123a:	d001      	beq.n	1240 <TEE_PopulateTransientObject+0x60>
/home/st/Desktop/Raspbian-optee/raspbian-optee/raspbian-tee1/raspbian-tee/optee_os/lib/libutee/tee_api_objects.c:282
    123c:	f006 fcb1 	bl	7ba2 <TEE_Panic>
/home/st/Desktop/Raspbian-optee/raspbian-optee/raspbian-tee1/raspbian-tee/optee_os/lib/libutee/tee_api_objects.c:284
    1240:	4620      	mov	r0, r4
    1242:	3720      	adds	r7, #32
    1244:	46bd      	mov	sp, r7
    1246:	e8bd 81f0 	ldmia.w	sp!, {r4, r5, r6, r7, r8, pc}
    124a:	bf00      	nop
    124c:	ffff0006 	.word	0xffff0006

00001250 <TEE_InitRefAttribute>:
TEE_InitRefAttribute():
/home/st/Desktop/Raspbian-optee/raspbian-optee/raspbian-tee1/raspbian-tee/optee_os/lib/libutee/tee_api_objects.c:288
    1250:	b5f8      	push	{r3, r4, r5, r6, r7, lr}
    1252:	460d      	mov	r5, r1
    1254:	4617      	mov	r7, r2
    1256:	461e      	mov	r6, r3
/home/st/Desktop/Raspbian-optee/raspbian-optee/raspbian-tee1/raspbian-tee/optee_os/lib/libutee/tee_api_objects.c:289
    1258:	4604      	mov	r4, r0
    125a:	b908      	cbnz	r0, 1260 <TEE_InitRefAttribute+0x10>
/home/st/Desktop/Raspbian-optee/raspbian-optee/raspbian-tee1/raspbian-tee/optee_os/lib/libutee/tee_api_objects.c:290
    125c:	f006 fca1 	bl	7ba2 <TEE_Panic>
/home/st/Desktop/Raspbian-optee/raspbian-optee/raspbian-tee1/raspbian-tee/optee_os/lib/libutee/tee_api_objects.c:291
    1260:	00ab      	lsls	r3, r5, #2
    1262:	d502      	bpl.n	126a <TEE_InitRefAttribute+0x1a>
/home/st/Desktop/Raspbian-optee/raspbian-optee/raspbian-tee1/raspbian-tee/optee_os/lib/libutee/tee_api_objects.c:292
    1264:	2000      	movs	r0, #0
    1266:	f006 fc9c 	bl	7ba2 <TEE_Panic>
/home/st/Desktop/Raspbian-optee/raspbian-optee/raspbian-tee1/raspbian-tee/optee_os/lib/libutee/tee_api_objects.c:294
    126a:	e9c4 5700 	strd	r5, r7, [r4]
/home/st/Desktop/Raspbian-optee/raspbian-optee/raspbian-tee1/raspbian-tee/optee_os/lib/libutee/tee_api_objects.c:295
    126e:	60a6      	str	r6, [r4, #8]
/home/st/Desktop/Raspbian-optee/raspbian-optee/raspbian-tee1/raspbian-tee/optee_os/lib/libutee/tee_api_objects.c:296
    1270:	bdf8      	pop	{r3, r4, r5, r6, r7, pc}

00001272 <TEE_InitValueAttribute>:
TEE_InitValueAttribute():
/home/st/Desktop/Raspbian-optee/raspbian-optee/raspbian-tee1/raspbian-tee/optee_os/lib/libutee/tee_api_objects.c:300
    1272:	b5f8      	push	{r3, r4, r5, r6, r7, lr}
    1274:	460d      	mov	r5, r1
    1276:	4617      	mov	r7, r2
    1278:	461e      	mov	r6, r3
/home/st/Desktop/Raspbian-optee/raspbian-optee/raspbian-tee1/raspbian-tee/optee_os/lib/libutee/tee_api_objects.c:301
    127a:	4604      	mov	r4, r0
    127c:	b908      	cbnz	r0, 1282 <TEE_InitValueAttribute+0x10>
/home/st/Desktop/Raspbian-optee/raspbian-optee/raspbian-tee1/raspbian-tee/optee_os/lib/libutee/tee_api_objects.c:302
    127e:	f006 fc90 	bl	7ba2 <TEE_Panic>
/home/st/Desktop/Raspbian-optee/raspbian-optee/raspbian-tee1/raspbian-tee/optee_os/lib/libutee/tee_api_objects.c:303
    1282:	f015 5000 	ands.w	r0, r5, #536870912	; 0x20000000
    1286:	d101      	bne.n	128c <TEE_InitValueAttribute+0x1a>
/home/st/Desktop/Raspbian-optee/raspbian-optee/raspbian-tee1/raspbian-tee/optee_os/lib/libutee/tee_api_objects.c:304
    1288:	f006 fc8b 	bl	7ba2 <TEE_Panic>
/home/st/Desktop/Raspbian-optee/raspbian-optee/raspbian-tee1/raspbian-tee/optee_os/lib/libutee/tee_api_objects.c:306
    128c:	e9c4 5700 	strd	r5, r7, [r4]
/home/st/Desktop/Raspbian-optee/raspbian-optee/raspbian-tee1/raspbian-tee/optee_os/lib/libutee/tee_api_objects.c:307
    1290:	60a6      	str	r6, [r4, #8]
/home/st/Desktop/Raspbian-optee/raspbian-optee/raspbian-tee1/raspbian-tee/optee_os/lib/libutee/tee_api_objects.c:308
    1292:	bdf8      	pop	{r3, r4, r5, r6, r7, pc}

00001294 <TEE_CopyObjectAttributes1>:
TEE_CopyObjectAttributes1():
/home/st/Desktop/Raspbian-optee/raspbian-optee/raspbian-tee1/raspbian-tee/optee_os/lib/libutee/tee_api_objects.c:333
    1294:	b570      	push	{r4, r5, r6, lr}
    1296:	460d      	mov	r5, r1
    1298:	4606      	mov	r6, r0
    129a:	b08e      	sub	sp, #56	; 0x38
/home/st/Desktop/Raspbian-optee/raspbian-optee/raspbian-tee1/raspbian-tee/optee_os/lib/libutee/tee_api_objects.c:338
    129c:	4669      	mov	r1, sp
    129e:	f001 efae 	blx	31fc <utee_cryp_obj_get_info>
/home/st/Desktop/Raspbian-optee/raspbian-optee/raspbian-tee1/raspbian-tee/optee_os/lib/libutee/tee_api_objects.c:339
    12a2:	4604      	mov	r4, r0
    12a4:	b9e0      	cbnz	r0, 12e0 <TEE_CopyObjectAttributes1+0x4c>
/home/st/Desktop/Raspbian-optee/raspbian-optee/raspbian-tee1/raspbian-tee/optee_os/lib/libutee/tee_api_objects.c:342
    12a6:	a907      	add	r1, sp, #28
    12a8:	4628      	mov	r0, r5
    12aa:	f001 efa8 	blx	31fc <utee_cryp_obj_get_info>
/home/st/Desktop/Raspbian-optee/raspbian-optee/raspbian-tee1/raspbian-tee/optee_os/lib/libutee/tee_api_objects.c:343
    12ae:	4604      	mov	r4, r0
    12b0:	b9b0      	cbnz	r0, 12e0 <TEE_CopyObjectAttributes1+0x4c>
/home/st/Desktop/Raspbian-optee/raspbian-optee/raspbian-tee1/raspbian-tee/optee_os/lib/libutee/tee_api_objects.c:346
    12b2:	9b0d      	ldr	r3, [sp, #52]	; 0x34
    12b4:	0399      	lsls	r1, r3, #14
    12b6:	d401      	bmi.n	12bc <TEE_CopyObjectAttributes1+0x28>
/home/st/Desktop/Raspbian-optee/raspbian-optee/raspbian-tee1/raspbian-tee/optee_os/lib/libutee/tee_api_objects.c:347
    12b8:	f006 fc73 	bl	7ba2 <TEE_Panic>
/home/st/Desktop/Raspbian-optee/raspbian-optee/raspbian-tee1/raspbian-tee/optee_os/lib/libutee/tee_api_objects.c:349
    12bc:	9b06      	ldr	r3, [sp, #24]
    12be:	03da      	lsls	r2, r3, #15
    12c0:	d502      	bpl.n	12c8 <TEE_CopyObjectAttributes1+0x34>
/home/st/Desktop/Raspbian-optee/raspbian-optee/raspbian-tee1/raspbian-tee/optee_os/lib/libutee/tee_api_objects.c:350
    12c2:	2000      	movs	r0, #0
    12c4:	f006 fc6d 	bl	7ba2 <TEE_Panic>
/home/st/Desktop/Raspbian-optee/raspbian-optee/raspbian-tee1/raspbian-tee/optee_os/lib/libutee/tee_api_objects.c:352
    12c8:	9b06      	ldr	r3, [sp, #24]
    12ca:	039b      	lsls	r3, r3, #14
    12cc:	d502      	bpl.n	12d4 <TEE_CopyObjectAttributes1+0x40>
/home/st/Desktop/Raspbian-optee/raspbian-optee/raspbian-tee1/raspbian-tee/optee_os/lib/libutee/tee_api_objects.c:353
    12ce:	2000      	movs	r0, #0
    12d0:	f006 fc67 	bl	7ba2 <TEE_Panic>
/home/st/Desktop/Raspbian-optee/raspbian-optee/raspbian-tee1/raspbian-tee/optee_os/lib/libutee/tee_api_objects.c:355
    12d4:	4629      	mov	r1, r5
    12d6:	4630      	mov	r0, r6
    12d8:	f001 efd6 	blx	3288 <utee_cryp_obj_copy>
/home/st/Desktop/Raspbian-optee/raspbian-optee/raspbian-tee1/raspbian-tee/optee_os/lib/libutee/tee_api_objects.c:359
    12dc:	4604      	mov	r4, r0
    12de:	b140      	cbz	r0, 12f2 <TEE_CopyObjectAttributes1+0x5e>
/home/st/Desktop/Raspbian-optee/raspbian-optee/raspbian-tee1/raspbian-tee/optee_os/lib/libutee/tee_api_objects.c:359 (discriminator 1)
    12e0:	4b05      	ldr	r3, [pc, #20]	; (12f8 <TEE_CopyObjectAttributes1+0x64>)
    12e2:	429c      	cmp	r4, r3
    12e4:	d005      	beq.n	12f2 <TEE_CopyObjectAttributes1+0x5e>
/home/st/Desktop/Raspbian-optee/raspbian-optee/raspbian-tee1/raspbian-tee/optee_os/lib/libutee/tee_api_objects.c:360
    12e6:	3302      	adds	r3, #2
    12e8:	429c      	cmp	r4, r3
    12ea:	d002      	beq.n	12f2 <TEE_CopyObjectAttributes1+0x5e>
/home/st/Desktop/Raspbian-optee/raspbian-optee/raspbian-tee1/raspbian-tee/optee_os/lib/libutee/tee_api_objects.c:362
    12ec:	4620      	mov	r0, r4
    12ee:	f006 fc58 	bl	7ba2 <TEE_Panic>
/home/st/Desktop/Raspbian-optee/raspbian-optee/raspbian-tee1/raspbian-tee/optee_os/lib/libutee/tee_api_objects.c:365
    12f2:	4620      	mov	r0, r4
    12f4:	b00e      	add	sp, #56	; 0x38
    12f6:	bd70      	pop	{r4, r5, r6, pc}
    12f8:	f0100001 	.word	0xf0100001

000012fc <TEE_CopyObjectAttributes>:
TEE_CopyObjectAttributes():
/home/st/Desktop/Raspbian-optee/raspbian-optee/raspbian-tee1/raspbian-tee/optee_os/lib/libutee/tee_api_objects.c:318
    12fc:	b530      	push	{r4, r5, lr}
    12fe:	460c      	mov	r4, r1
    1300:	4605      	mov	r5, r0
    1302:	b089      	sub	sp, #36	; 0x24
/home/st/Desktop/Raspbian-optee/raspbian-optee/raspbian-tee1/raspbian-tee/optee_os/lib/libutee/tee_api_objects.c:322
    1304:	4620      	mov	r0, r4
    1306:	a901      	add	r1, sp, #4
    1308:	f001 ef78 	blx	31fc <utee_cryp_obj_get_info>
/home/st/Desktop/Raspbian-optee/raspbian-optee/raspbian-tee1/raspbian-tee/optee_os/lib/libutee/tee_api_objects.c:323
    130c:	4b06      	ldr	r3, [pc, #24]	; (1328 <TEE_CopyObjectAttributes+0x2c>)
    130e:	9a01      	ldr	r2, [sp, #4]
    1310:	429a      	cmp	r2, r3
    1312:	d006      	beq.n	1322 <TEE_CopyObjectAttributes+0x26>
/home/st/Desktop/Raspbian-optee/raspbian-optee/raspbian-tee1/raspbian-tee/optee_os/lib/libutee/tee_api_objects.c:326
    1314:	4621      	mov	r1, r4
    1316:	4628      	mov	r0, r5
    1318:	f7ff ffbc 	bl	1294 <TEE_CopyObjectAttributes1>
/home/st/Desktop/Raspbian-optee/raspbian-optee/raspbian-tee1/raspbian-tee/optee_os/lib/libutee/tee_api_objects.c:327
    131c:	b108      	cbz	r0, 1322 <TEE_CopyObjectAttributes+0x26>
/home/st/Desktop/Raspbian-optee/raspbian-optee/raspbian-tee1/raspbian-tee/optee_os/lib/libutee/tee_api_objects.c:328
    131e:	f006 fc40 	bl	7ba2 <TEE_Panic>
/home/st/Desktop/Raspbian-optee/raspbian-optee/raspbian-tee1/raspbian-tee/optee_os/lib/libutee/tee_api_objects.c:329
    1322:	b009      	add	sp, #36	; 0x24
    1324:	bd30      	pop	{r4, r5, pc}
    1326:	bf00      	nop
    1328:	a00000be 	.word	0xa00000be

0000132c <TEE_GenerateKey>:
TEE_GenerateKey():
/home/st/Desktop/Raspbian-optee/raspbian-optee/raspbian-tee1/raspbian-tee/optee_os/lib/libutee/tee_api_objects.c:369
    132c:	e92d 41f0 	stmdb	sp!, {r4, r5, r6, r7, r8, lr}
    1330:	461c      	mov	r4, r3
    1332:	460e      	mov	r6, r1
/home/st/Desktop/Raspbian-optee/raspbian-optee/raspbian-tee1/raspbian-tee/optee_os/lib/libutee/tee_api_objects.c:371
    1334:	2318      	movs	r3, #24
/home/st/Desktop/Raspbian-optee/raspbian-optee/raspbian-tee1/raspbian-tee/optee_os/lib/libutee/tee_api_objects.c:369
    1336:	4611      	mov	r1, r2
/home/st/Desktop/Raspbian-optee/raspbian-optee/raspbian-tee1/raspbian-tee/optee_os/lib/libutee/tee_api_objects.c:371
    1338:	466a      	mov	r2, sp
/home/st/Desktop/Raspbian-optee/raspbian-optee/raspbian-tee1/raspbian-tee/optee_os/lib/libutee/tee_api_objects.c:369
    133a:	af00      	add	r7, sp, #0
    133c:	4605      	mov	r5, r0
/home/st/Desktop/Raspbian-optee/raspbian-optee/raspbian-tee1/raspbian-tee/optee_os/lib/libutee/tee_api_objects.c:371
    133e:	fb03 2314 	mls	r3, r3, r4, r2
/home/st/Desktop/Raspbian-optee/raspbian-optee/raspbian-tee1/raspbian-tee/optee_os/lib/libutee/tee_api_objects.c:373
    1342:	4622      	mov	r2, r4
/home/st/Desktop/Raspbian-optee/raspbian-optee/raspbian-tee1/raspbian-tee/optee_os/lib/libutee/tee_api_objects.c:371
    1344:	469d      	mov	sp, r3
    1346:	46e8      	mov	r8, sp
/home/st/Desktop/Raspbian-optee/raspbian-optee/raspbian-tee1/raspbian-tee/optee_os/lib/libutee/tee_api_objects.c:373
    1348:	4640      	mov	r0, r8
    134a:	f7ff fe15 	bl	f78 <__utee_from_attr>
/home/st/Desktop/Raspbian-optee/raspbian-optee/raspbian-tee1/raspbian-tee/optee_os/lib/libutee/tee_api_objects.c:374
    134e:	4623      	mov	r3, r4
    1350:	4642      	mov	r2, r8
    1352:	4631      	mov	r1, r6
    1354:	4628      	mov	r0, r5
    1356:	f002 e88e 	blx	3474 <utee_cryp_obj_generate_key>
/home/st/Desktop/Raspbian-optee/raspbian-optee/raspbian-tee1/raspbian-tee/optee_os/lib/libutee/tee_api_objects.c:377
    135a:	4604      	mov	r4, r0
    135c:	b120      	cbz	r0, 1368 <TEE_GenerateKey+0x3c>
/home/st/Desktop/Raspbian-optee/raspbian-optee/raspbian-tee1/raspbian-tee/optee_os/lib/libutee/tee_api_objects.c:377 (discriminator 1)
    135e:	4b04      	ldr	r3, [pc, #16]	; (1370 <TEE_GenerateKey+0x44>)
    1360:	4298      	cmp	r0, r3
    1362:	d001      	beq.n	1368 <TEE_GenerateKey+0x3c>
/home/st/Desktop/Raspbian-optee/raspbian-optee/raspbian-tee1/raspbian-tee/optee_os/lib/libutee/tee_api_objects.c:378
    1364:	f006 fc1d 	bl	7ba2 <TEE_Panic>
/home/st/Desktop/Raspbian-optee/raspbian-optee/raspbian-tee1/raspbian-tee/optee_os/lib/libutee/tee_api_objects.c:381
    1368:	4620      	mov	r0, r4
    136a:	46bd      	mov	sp, r7
    136c:	e8bd 81f0 	ldmia.w	sp!, {r4, r5, r6, r7, r8, pc}
    1370:	ffff0006 	.word	0xffff0006

00001374 <TEE_OpenPersistentObject>:
TEE_OpenPersistentObject():
/home/st/Desktop/Raspbian-optee/raspbian-optee/raspbian-tee1/raspbian-tee/optee_os/lib/libutee/tee_api_objects.c:388
    1374:	b530      	push	{r4, r5, lr}
    1376:	b085      	sub	sp, #20
    1378:	9d08      	ldr	r5, [sp, #32]
/home/st/Desktop/Raspbian-optee/raspbian-optee/raspbian-tee1/raspbian-tee/optee_os/lib/libutee/tee_api_objects.c:392
    137a:	b919      	cbnz	r1, 1384 <TEE_OpenPersistentObject+0x10>
/home/st/Desktop/Raspbian-optee/raspbian-optee/raspbian-tee1/raspbian-tee/optee_os/lib/libutee/tee_api_objects.c:393
    137c:	4c12      	ldr	r4, [pc, #72]	; (13c8 <TEE_OpenPersistentObject+0x54>)
/home/st/Desktop/Raspbian-optee/raspbian-optee/raspbian-tee1/raspbian-tee/optee_os/lib/libutee/tee_api_objects.c:422
    137e:	4620      	mov	r0, r4
    1380:	b005      	add	sp, #20
    1382:	bd30      	pop	{r4, r5, pc}
/home/st/Desktop/Raspbian-optee/raspbian-optee/raspbian-tee1/raspbian-tee/optee_os/lib/libutee/tee_api_objects.c:397
    1384:	2a40      	cmp	r2, #64	; 0x40
    1386:	d809      	bhi.n	139c <TEE_OpenPersistentObject+0x28>
/home/st/Desktop/Raspbian-optee/raspbian-optee/raspbian-tee1/raspbian-tee/optee_os/lib/libutee/tee_api_objects.c:402
    1388:	b145      	cbz	r5, 139c <TEE_OpenPersistentObject+0x28>
/home/st/Desktop/Raspbian-optee/raspbian-optee/raspbian-tee1/raspbian-tee/optee_os/lib/libutee/tee_api_objects.c:407
    138a:	ac03      	add	r4, sp, #12
    138c:	9400      	str	r4, [sp, #0]
    138e:	f001 efec 	blx	3368 <utee_storage_obj_open>
/home/st/Desktop/Raspbian-optee/raspbian-optee/raspbian-tee1/raspbian-tee/optee_os/lib/libutee/tee_api_objects.c:409
    1392:	4604      	mov	r4, r0
    1394:	b920      	cbnz	r0, 13a0 <TEE_OpenPersistentObject+0x2c>
/home/st/Desktop/Raspbian-optee/raspbian-optee/raspbian-tee1/raspbian-tee/optee_os/lib/libutee/tee_api_objects.c:410
    1396:	9b03      	ldr	r3, [sp, #12]
    1398:	602b      	str	r3, [r5, #0]
/home/st/Desktop/Raspbian-optee/raspbian-optee/raspbian-tee1/raspbian-tee/optee_os/lib/libutee/tee_api_objects.c:413
    139a:	e7f0      	b.n	137e <TEE_OpenPersistentObject+0xa>
    139c:	4c0b      	ldr	r4, [pc, #44]	; (13cc <TEE_OpenPersistentObject+0x58>)
    139e:	e00e      	b.n	13be <TEE_OpenPersistentObject+0x4a>
    13a0:	4b09      	ldr	r3, [pc, #36]	; (13c8 <TEE_OpenPersistentObject+0x54>)
    13a2:	4298      	cmp	r0, r3
    13a4:	d0ea      	beq.n	137c <TEE_OpenPersistentObject+0x8>
/home/st/Desktop/Raspbian-optee/raspbian-optee/raspbian-tee1/raspbian-tee/optee_os/lib/libutee/tee_api_objects.c:414
    13a6:	4b0a      	ldr	r3, [pc, #40]	; (13d0 <TEE_OpenPersistentObject+0x5c>)
    13a8:	429c      	cmp	r4, r3
    13aa:	d0e8      	beq.n	137e <TEE_OpenPersistentObject+0xa>
/home/st/Desktop/Raspbian-optee/raspbian-optee/raspbian-tee1/raspbian-tee/optee_os/lib/libutee/tee_api_objects.c:415
    13ac:	3309      	adds	r3, #9
    13ae:	429c      	cmp	r4, r3
    13b0:	d0e5      	beq.n	137e <TEE_OpenPersistentObject+0xa>
/home/st/Desktop/Raspbian-optee/raspbian-optee/raspbian-tee1/raspbian-tee/optee_os/lib/libutee/tee_api_objects.c:416
    13b2:	4b08      	ldr	r3, [pc, #32]	; (13d4 <TEE_OpenPersistentObject+0x60>)
    13b4:	429c      	cmp	r4, r3
    13b6:	d0e2      	beq.n	137e <TEE_OpenPersistentObject+0xa>
/home/st/Desktop/Raspbian-optee/raspbian-optee/raspbian-tee1/raspbian-tee/optee_os/lib/libutee/tee_api_objects.c:417
    13b8:	3302      	adds	r3, #2
    13ba:	429c      	cmp	r4, r3
    13bc:	d0df      	beq.n	137e <TEE_OpenPersistentObject+0xa>
/home/st/Desktop/Raspbian-optee/raspbian-optee/raspbian-tee1/raspbian-tee/optee_os/lib/libutee/tee_api_objects.c:419
    13be:	4620      	mov	r0, r4
    13c0:	f006 fbef 	bl	7ba2 <TEE_Panic>
/home/st/Desktop/Raspbian-optee/raspbian-optee/raspbian-tee1/raspbian-tee/optee_os/lib/libutee/tee_api_objects.c:421
    13c4:	e7db      	b.n	137e <TEE_OpenPersistentObject+0xa>
    13c6:	bf00      	nop
    13c8:	ffff0008 	.word	0xffff0008
    13cc:	ffff0006 	.word	0xffff0006
    13d0:	ffff0003 	.word	0xffff0003
    13d4:	f0100001 	.word	0xf0100001

000013d8 <TEE_CreatePersistentObject>:
TEE_CreatePersistentObject():
/home/st/Desktop/Raspbian-optee/raspbian-optee/raspbian-tee1/raspbian-tee/optee_os/lib/libutee/tee_api_objects.c:430
    13d8:	b570      	push	{r4, r5, r6, lr}
    13da:	b086      	sub	sp, #24
    13dc:	9c0d      	ldr	r4, [sp, #52]	; 0x34
/home/st/Desktop/Raspbian-optee/raspbian-optee/raspbian-tee1/raspbian-tee/optee_os/lib/libutee/tee_api_objects.c:434
    13de:	2900      	cmp	r1, #0
    13e0:	d038      	beq.n	1454 <TEE_CreatePersistentObject+0x7c>
/home/st/Desktop/Raspbian-optee/raspbian-optee/raspbian-tee1/raspbian-tee/optee_os/lib/libutee/tee_api_objects.c:439
    13e2:	2a40      	cmp	r2, #64	; 0x40
    13e4:	d831      	bhi.n	144a <TEE_CreatePersistentObject+0x72>
/home/st/Desktop/Raspbian-optee/raspbian-optee/raspbian-tee1/raspbian-tee/optee_os/lib/libutee/tee_api_objects.c:444
    13e6:	ad05      	add	r5, sp, #20
    13e8:	9503      	str	r5, [sp, #12]
    13ea:	9d0c      	ldr	r5, [sp, #48]	; 0x30
    13ec:	9502      	str	r5, [sp, #8]
    13ee:	9d0b      	ldr	r5, [sp, #44]	; 0x2c
    13f0:	9501      	str	r5, [sp, #4]
    13f2:	9d0a      	ldr	r5, [sp, #40]	; 0x28
    13f4:	9500      	str	r5, [sp, #0]
    13f6:	f001 efc4 	blx	3380 <utee_storage_obj_create>
/home/st/Desktop/Raspbian-optee/raspbian-optee/raspbian-tee1/raspbian-tee/optee_os/lib/libutee/tee_api_objects.c:447
    13fa:	b970      	cbnz	r0, 141a <TEE_CreatePersistentObject+0x42>
/home/st/Desktop/Raspbian-optee/raspbian-optee/raspbian-tee1/raspbian-tee/optee_os/lib/libutee/tee_api_objects.c:448
    13fc:	9b05      	ldr	r3, [sp, #20]
    13fe:	b114      	cbz	r4, 1406 <TEE_CreatePersistentObject+0x2e>
/home/st/Desktop/Raspbian-optee/raspbian-optee/raspbian-tee1/raspbian-tee/optee_os/lib/libutee/tee_api_objects.c:449
    1400:	6023      	str	r3, [r4, #0]
/home/st/Desktop/Raspbian-optee/raspbian-optee/raspbian-tee1/raspbian-tee/optee_os/lib/libutee/tee_api_objects.c:468
    1402:	b006      	add	sp, #24
    1404:	bd70      	pop	{r4, r5, r6, pc}
/home/st/Desktop/Raspbian-optee/raspbian-optee/raspbian-tee1/raspbian-tee/optee_os/lib/libutee/tee_api_objects.c:451
    1406:	4618      	mov	r0, r3
    1408:	f001 ef20 	blx	324c <utee_cryp_obj_close>
/home/st/Desktop/Raspbian-optee/raspbian-optee/raspbian-tee1/raspbian-tee/optee_os/lib/libutee/tee_api_objects.c:452
    140c:	2800      	cmp	r0, #0
    140e:	d0f8      	beq.n	1402 <TEE_CreatePersistentObject+0x2a>
/home/st/Desktop/Raspbian-optee/raspbian-optee/raspbian-tee1/raspbian-tee/optee_os/lib/libutee/tee_api_objects.c:458
    1410:	4b12      	ldr	r3, [pc, #72]	; (145c <TEE_CreatePersistentObject+0x84>)
    1412:	4298      	cmp	r0, r3
    1414:	d106      	bne.n	1424 <TEE_CreatePersistentObject+0x4c>
/home/st/Desktop/Raspbian-optee/raspbian-optee/raspbian-tee1/raspbian-tee/optee_os/lib/libutee/tee_api_objects.c:457
    1416:	4811      	ldr	r0, [pc, #68]	; (145c <TEE_CreatePersistentObject+0x84>)
    1418:	e7f3      	b.n	1402 <TEE_CreatePersistentObject+0x2a>
/home/st/Desktop/Raspbian-optee/raspbian-optee/raspbian-tee1/raspbian-tee/optee_os/lib/libutee/tee_api_objects.c:456
    141a:	2c00      	cmp	r4, #0
    141c:	d0f8      	beq.n	1410 <TEE_CreatePersistentObject+0x38>
/home/st/Desktop/Raspbian-optee/raspbian-optee/raspbian-tee1/raspbian-tee/optee_os/lib/libutee/tee_api_objects.c:457
    141e:	2300      	movs	r3, #0
    1420:	6023      	str	r3, [r4, #0]
    1422:	e7f5      	b.n	1410 <TEE_CreatePersistentObject+0x38>
/home/st/Desktop/Raspbian-optee/raspbian-optee/raspbian-tee1/raspbian-tee/optee_os/lib/libutee/tee_api_objects.c:458 (discriminator 1)
    1424:	4b0e      	ldr	r3, [pc, #56]	; (1460 <TEE_CreatePersistentObject+0x88>)
    1426:	4298      	cmp	r0, r3
    1428:	d0eb      	beq.n	1402 <TEE_CreatePersistentObject+0x2a>
/home/st/Desktop/Raspbian-optee/raspbian-optee/raspbian-tee1/raspbian-tee/optee_os/lib/libutee/tee_api_objects.c:459
    142a:	3309      	adds	r3, #9
    142c:	4298      	cmp	r0, r3
    142e:	d0e8      	beq.n	1402 <TEE_CreatePersistentObject+0x2a>
/home/st/Desktop/Raspbian-optee/raspbian-optee/raspbian-tee1/raspbian-tee/optee_os/lib/libutee/tee_api_objects.c:460
    1430:	4b0c      	ldr	r3, [pc, #48]	; (1464 <TEE_CreatePersistentObject+0x8c>)
    1432:	4298      	cmp	r0, r3
    1434:	d0e5      	beq.n	1402 <TEE_CreatePersistentObject+0x2a>
/home/st/Desktop/Raspbian-optee/raspbian-optee/raspbian-tee1/raspbian-tee/optee_os/lib/libutee/tee_api_objects.c:461
    1436:	4b0c      	ldr	r3, [pc, #48]	; (1468 <TEE_CreatePersistentObject+0x90>)
    1438:	4298      	cmp	r0, r3
    143a:	d0e2      	beq.n	1402 <TEE_CreatePersistentObject+0x2a>
/home/st/Desktop/Raspbian-optee/raspbian-optee/raspbian-tee1/raspbian-tee/optee_os/lib/libutee/tee_api_objects.c:462
    143c:	3302      	adds	r3, #2
    143e:	4298      	cmp	r0, r3
    1440:	d0df      	beq.n	1402 <TEE_CreatePersistentObject+0x2a>
/home/st/Desktop/Raspbian-optee/raspbian-optee/raspbian-tee1/raspbian-tee/optee_os/lib/libutee/tee_api_objects.c:465
    1442:	f006 fbae 	bl	7ba2 <TEE_Panic>
/home/st/Desktop/Raspbian-optee/raspbian-optee/raspbian-tee1/raspbian-tee/optee_os/lib/libutee/tee_api_objects.c:467
    1446:	2000      	movs	r0, #0
    1448:	e7db      	b.n	1402 <TEE_CreatePersistentObject+0x2a>
/home/st/Desktop/Raspbian-optee/raspbian-optee/raspbian-tee1/raspbian-tee/optee_os/lib/libutee/tee_api_objects.c:456
    144a:	b10c      	cbz	r4, 1450 <TEE_CreatePersistentObject+0x78>
/home/st/Desktop/Raspbian-optee/raspbian-optee/raspbian-tee1/raspbian-tee/optee_os/lib/libutee/tee_api_objects.c:457
    144c:	2300      	movs	r3, #0
    144e:	6023      	str	r3, [r4, #0]
/home/st/Desktop/Raspbian-optee/raspbian-optee/raspbian-tee1/raspbian-tee/optee_os/lib/libutee/tee_api_objects.c:440
    1450:	4806      	ldr	r0, [pc, #24]	; (146c <TEE_CreatePersistentObject+0x94>)
    1452:	e7f6      	b.n	1442 <TEE_CreatePersistentObject+0x6a>
/home/st/Desktop/Raspbian-optee/raspbian-optee/raspbian-tee1/raspbian-tee/optee_os/lib/libutee/tee_api_objects.c:456
    1454:	2c00      	cmp	r4, #0
    1456:	d0de      	beq.n	1416 <TEE_CreatePersistentObject+0x3e>
/home/st/Desktop/Raspbian-optee/raspbian-optee/raspbian-tee1/raspbian-tee/optee_os/lib/libutee/tee_api_objects.c:457
    1458:	6021      	str	r1, [r4, #0]
    145a:	e7dc      	b.n	1416 <TEE_CreatePersistentObject+0x3e>
    145c:	ffff0008 	.word	0xffff0008
    1460:	ffff0003 	.word	0xffff0003
    1464:	ffff3041 	.word	0xffff3041
    1468:	f0100001 	.word	0xf0100001
    146c:	ffff0006 	.word	0xffff0006

00001470 <TEE_CloseAndDeletePersistentObject1>:
TEE_CloseAndDeletePersistentObject1():
/home/st/Desktop/Raspbian-optee/raspbian-optee/raspbian-tee1/raspbian-tee/optee_os/lib/libutee/tee_api_objects.c:490
    1470:	b510      	push	{r4, lr}
/home/st/Desktop/Raspbian-optee/raspbian-optee/raspbian-tee1/raspbian-tee/optee_os/lib/libutee/tee_api_objects.c:493
    1472:	b150      	cbz	r0, 148a <TEE_CloseAndDeletePersistentObject1+0x1a>
/home/st/Desktop/Raspbian-optee/raspbian-optee/raspbian-tee1/raspbian-tee/optee_os/lib/libutee/tee_api_objects.c:496
    1474:	f001 ef90 	blx	3398 <utee_storage_obj_del>
/home/st/Desktop/Raspbian-optee/raspbian-optee/raspbian-tee1/raspbian-tee/optee_os/lib/libutee/tee_api_objects.c:498
    1478:	4604      	mov	r4, r0
    147a:	b120      	cbz	r0, 1486 <TEE_CloseAndDeletePersistentObject1+0x16>
/home/st/Desktop/Raspbian-optee/raspbian-optee/raspbian-tee1/raspbian-tee/optee_os/lib/libutee/tee_api_objects.c:498 (discriminator 1)
    147c:	4b04      	ldr	r3, [pc, #16]	; (1490 <TEE_CloseAndDeletePersistentObject1+0x20>)
    147e:	4298      	cmp	r0, r3
    1480:	d001      	beq.n	1486 <TEE_CloseAndDeletePersistentObject1+0x16>
/home/st/Desktop/Raspbian-optee/raspbian-optee/raspbian-tee1/raspbian-tee/optee_os/lib/libutee/tee_api_objects.c:499
    1482:	f006 fb8e 	bl	7ba2 <TEE_Panic>
/home/st/Desktop/Raspbian-optee/raspbian-optee/raspbian-tee1/raspbian-tee/optee_os/lib/libutee/tee_api_objects.c:502
    1486:	4620      	mov	r0, r4
    1488:	bd10      	pop	{r4, pc}
/home/st/Desktop/Raspbian-optee/raspbian-optee/raspbian-tee1/raspbian-tee/optee_os/lib/libutee/tee_api_objects.c:494
    148a:	4c01      	ldr	r4, [pc, #4]	; (1490 <TEE_CloseAndDeletePersistentObject1+0x20>)
    148c:	e7fb      	b.n	1486 <TEE_CloseAndDeletePersistentObject1+0x16>
    148e:	bf00      	nop
    1490:	f0100003 	.word	0xf0100003

00001494 <TEE_CloseAndDeletePersistentObject>:
TEE_CloseAndDeletePersistentObject():
/home/st/Desktop/Raspbian-optee/raspbian-optee/raspbian-tee1/raspbian-tee/optee_os/lib/libutee/tee_api_objects.c:477
    1494:	b508      	push	{r3, lr}
/home/st/Desktop/Raspbian-optee/raspbian-optee/raspbian-tee1/raspbian-tee/optee_os/lib/libutee/tee_api_objects.c:480
    1496:	b138      	cbz	r0, 14a8 <TEE_CloseAndDeletePersistentObject+0x14>
/home/st/Desktop/Raspbian-optee/raspbian-optee/raspbian-tee1/raspbian-tee/optee_os/lib/libutee/tee_api_objects.c:483
    1498:	f7ff ffea 	bl	1470 <TEE_CloseAndDeletePersistentObject1>
/home/st/Desktop/Raspbian-optee/raspbian-optee/raspbian-tee1/raspbian-tee/optee_os/lib/libutee/tee_api_objects.c:485
    149c:	b120      	cbz	r0, 14a8 <TEE_CloseAndDeletePersistentObject+0x14>
/home/st/Desktop/Raspbian-optee/raspbian-optee/raspbian-tee1/raspbian-tee/optee_os/lib/libutee/tee_api_objects.c:487
    149e:	e8bd 4008 	ldmia.w	sp!, {r3, lr}
/home/st/Desktop/Raspbian-optee/raspbian-optee/raspbian-tee1/raspbian-tee/optee_os/lib/libutee/tee_api_objects.c:486
    14a2:	2000      	movs	r0, #0
    14a4:	f006 bb7d 	b.w	7ba2 <TEE_Panic>
/home/st/Desktop/Raspbian-optee/raspbian-optee/raspbian-tee1/raspbian-tee/optee_os/lib/libutee/tee_api_objects.c:487
    14a8:	bd08      	pop	{r3, pc}

000014aa <TEE_RenamePersistentObject>:
TEE_RenamePersistentObject():
/home/st/Desktop/Raspbian-optee/raspbian-optee/raspbian-tee1/raspbian-tee/optee_os/lib/libutee/tee_api_objects.c:508
    14aa:	b510      	push	{r4, lr}
/home/st/Desktop/Raspbian-optee/raspbian-optee/raspbian-tee1/raspbian-tee/optee_os/lib/libutee/tee_api_objects.c:511
    14ac:	b1a0      	cbz	r0, 14d8 <TEE_RenamePersistentObject+0x2e>
/home/st/Desktop/Raspbian-optee/raspbian-optee/raspbian-tee1/raspbian-tee/optee_os/lib/libutee/tee_api_objects.c:516
    14ae:	b1a9      	cbz	r1, 14dc <TEE_RenamePersistentObject+0x32>
/home/st/Desktop/Raspbian-optee/raspbian-optee/raspbian-tee1/raspbian-tee/optee_os/lib/libutee/tee_api_objects.c:521
    14b0:	2a40      	cmp	r2, #64	; 0x40
    14b2:	d813      	bhi.n	14dc <TEE_RenamePersistentObject+0x32>
/home/st/Desktop/Raspbian-optee/raspbian-optee/raspbian-tee1/raspbian-tee/optee_os/lib/libutee/tee_api_objects.c:526
    14b4:	f001 ef7a 	blx	33ac <utee_storage_obj_rename>
/home/st/Desktop/Raspbian-optee/raspbian-optee/raspbian-tee1/raspbian-tee/optee_os/lib/libutee/tee_api_objects.c:530
    14b8:	4604      	mov	r4, r0
    14ba:	b158      	cbz	r0, 14d4 <TEE_RenamePersistentObject+0x2a>
/home/st/Desktop/Raspbian-optee/raspbian-optee/raspbian-tee1/raspbian-tee/optee_os/lib/libutee/tee_api_objects.c:530 (discriminator 1)
    14bc:	4b08      	ldr	r3, [pc, #32]	; (14e0 <TEE_RenamePersistentObject+0x36>)
    14be:	4298      	cmp	r0, r3
    14c0:	d008      	beq.n	14d4 <TEE_RenamePersistentObject+0x2a>
/home/st/Desktop/Raspbian-optee/raspbian-optee/raspbian-tee1/raspbian-tee/optee_os/lib/libutee/tee_api_objects.c:531
    14c2:	4b08      	ldr	r3, [pc, #32]	; (14e4 <TEE_RenamePersistentObject+0x3a>)
    14c4:	4298      	cmp	r0, r3
    14c6:	d005      	beq.n	14d4 <TEE_RenamePersistentObject+0x2a>
/home/st/Desktop/Raspbian-optee/raspbian-optee/raspbian-tee1/raspbian-tee/optee_os/lib/libutee/tee_api_objects.c:532
    14c8:	3302      	adds	r3, #2
    14ca:	4298      	cmp	r0, r3
    14cc:	d002      	beq.n	14d4 <TEE_RenamePersistentObject+0x2a>
/home/st/Desktop/Raspbian-optee/raspbian-optee/raspbian-tee1/raspbian-tee/optee_os/lib/libutee/tee_api_objects.c:534
    14ce:	4620      	mov	r0, r4
    14d0:	f006 fb67 	bl	7ba2 <TEE_Panic>
/home/st/Desktop/Raspbian-optee/raspbian-optee/raspbian-tee1/raspbian-tee/optee_os/lib/libutee/tee_api_objects.c:537
    14d4:	4620      	mov	r0, r4
    14d6:	bd10      	pop	{r4, pc}
/home/st/Desktop/Raspbian-optee/raspbian-optee/raspbian-tee1/raspbian-tee/optee_os/lib/libutee/tee_api_objects.c:512
    14d8:	4c03      	ldr	r4, [pc, #12]	; (14e8 <TEE_RenamePersistentObject+0x3e>)
    14da:	e7f8      	b.n	14ce <TEE_RenamePersistentObject+0x24>
/home/st/Desktop/Raspbian-optee/raspbian-optee/raspbian-tee1/raspbian-tee/optee_os/lib/libutee/tee_api_objects.c:517
    14dc:	4c03      	ldr	r4, [pc, #12]	; (14ec <TEE_RenamePersistentObject+0x42>)
    14de:	e7f6      	b.n	14ce <TEE_RenamePersistentObject+0x24>
    14e0:	ffff0003 	.word	0xffff0003
    14e4:	f0100001 	.word	0xf0100001
    14e8:	ffff0008 	.word	0xffff0008
    14ec:	ffff0006 	.word	0xffff0006

000014f0 <TEE_AllocatePersistentObjectEnumerator>:
TEE_AllocatePersistentObjectEnumerator():
/home/st/Desktop/Raspbian-optee/raspbian-optee/raspbian-tee1/raspbian-tee/optee_os/lib/libutee/tee_api_objects.c:541
    14f0:	b537      	push	{r0, r1, r2, r4, r5, lr}
/home/st/Desktop/Raspbian-optee/raspbian-optee/raspbian-tee1/raspbian-tee/optee_os/lib/libutee/tee_api_objects.c:545
    14f2:	4605      	mov	r5, r0
    14f4:	b190      	cbz	r0, 151c <TEE_AllocatePersistentObjectEnumerator+0x2c>
/home/st/Desktop/Raspbian-optee/raspbian-optee/raspbian-tee1/raspbian-tee/optee_os/lib/libutee/tee_api_objects.c:548
    14f6:	a801      	add	r0, sp, #4
    14f8:	f001 ef62 	blx	33c0 <utee_storage_alloc_enum>
/home/st/Desktop/Raspbian-optee/raspbian-optee/raspbian-tee1/raspbian-tee/optee_os/lib/libutee/tee_api_objects.c:550
    14fc:	4604      	mov	r4, r0
    14fe:	b108      	cbz	r0, 1504 <TEE_AllocatePersistentObjectEnumerator+0x14>
/home/st/Desktop/Raspbian-optee/raspbian-optee/raspbian-tee1/raspbian-tee/optee_os/lib/libutee/tee_api_objects.c:551
    1500:	2300      	movs	r3, #0
    1502:	9301      	str	r3, [sp, #4]
/home/st/Desktop/Raspbian-optee/raspbian-optee/raspbian-tee1/raspbian-tee/optee_os/lib/libutee/tee_api_objects.c:553
    1504:	9b01      	ldr	r3, [sp, #4]
    1506:	602b      	str	r3, [r5, #0]
/home/st/Desktop/Raspbian-optee/raspbian-optee/raspbian-tee1/raspbian-tee/optee_os/lib/libutee/tee_api_objects.c:555
    1508:	b12c      	cbz	r4, 1516 <TEE_AllocatePersistentObjectEnumerator+0x26>
/home/st/Desktop/Raspbian-optee/raspbian-optee/raspbian-tee1/raspbian-tee/optee_os/lib/libutee/tee_api_objects.c:555 (discriminator 1)
    150a:	4b05      	ldr	r3, [pc, #20]	; (1520 <TEE_AllocatePersistentObjectEnumerator+0x30>)
    150c:	429c      	cmp	r4, r3
    150e:	d002      	beq.n	1516 <TEE_AllocatePersistentObjectEnumerator+0x26>
/home/st/Desktop/Raspbian-optee/raspbian-optee/raspbian-tee1/raspbian-tee/optee_os/lib/libutee/tee_api_objects.c:557
    1510:	4620      	mov	r0, r4
    1512:	f006 fb46 	bl	7ba2 <TEE_Panic>
/home/st/Desktop/Raspbian-optee/raspbian-optee/raspbian-tee1/raspbian-tee/optee_os/lib/libutee/tee_api_objects.c:560
    1516:	4620      	mov	r0, r4
    1518:	b003      	add	sp, #12
    151a:	bd30      	pop	{r4, r5, pc}
/home/st/Desktop/Raspbian-optee/raspbian-optee/raspbian-tee1/raspbian-tee/optee_os/lib/libutee/tee_api_objects.c:546
    151c:	4c01      	ldr	r4, [pc, #4]	; (1524 <TEE_AllocatePersistentObjectEnumerator+0x34>)
    151e:	e7fa      	b.n	1516 <TEE_AllocatePersistentObjectEnumerator+0x26>
    1520:	ffff0003 	.word	0xffff0003
    1524:	ffff0006 	.word	0xffff0006

00001528 <TEE_FreePersistentObjectEnumerator>:
TEE_FreePersistentObjectEnumerator():
/home/st/Desktop/Raspbian-optee/raspbian-optee/raspbian-tee1/raspbian-tee/optee_os/lib/libutee/tee_api_objects.c:563
    1528:	b508      	push	{r3, lr}
/home/st/Desktop/Raspbian-optee/raspbian-optee/raspbian-tee1/raspbian-tee/optee_os/lib/libutee/tee_api_objects.c:566
    152a:	b130      	cbz	r0, 153a <TEE_FreePersistentObjectEnumerator+0x12>
/home/st/Desktop/Raspbian-optee/raspbian-optee/raspbian-tee1/raspbian-tee/optee_os/lib/libutee/tee_api_objects.c:569
    152c:	f001 ef52 	blx	33d4 <utee_storage_free_enum>
/home/st/Desktop/Raspbian-optee/raspbian-optee/raspbian-tee1/raspbian-tee/optee_os/lib/libutee/tee_api_objects.c:571
    1530:	b118      	cbz	r0, 153a <TEE_FreePersistentObjectEnumerator+0x12>
/home/st/Desktop/Raspbian-optee/raspbian-optee/raspbian-tee1/raspbian-tee/optee_os/lib/libutee/tee_api_objects.c:573
    1532:	e8bd 4008 	ldmia.w	sp!, {r3, lr}
/home/st/Desktop/Raspbian-optee/raspbian-optee/raspbian-tee1/raspbian-tee/optee_os/lib/libutee/tee_api_objects.c:572
    1536:	f006 bb34 	b.w	7ba2 <TEE_Panic>
/home/st/Desktop/Raspbian-optee/raspbian-optee/raspbian-tee1/raspbian-tee/optee_os/lib/libutee/tee_api_objects.c:573
    153a:	bd08      	pop	{r3, pc}

0000153c <TEE_ResetPersistentObjectEnumerator>:
TEE_ResetPersistentObjectEnumerator():
/home/st/Desktop/Raspbian-optee/raspbian-optee/raspbian-tee1/raspbian-tee/optee_os/lib/libutee/tee_api_objects.c:576
    153c:	b508      	push	{r3, lr}
/home/st/Desktop/Raspbian-optee/raspbian-optee/raspbian-tee1/raspbian-tee/optee_os/lib/libutee/tee_api_objects.c:579
    153e:	b130      	cbz	r0, 154e <TEE_ResetPersistentObjectEnumerator+0x12>
/home/st/Desktop/Raspbian-optee/raspbian-optee/raspbian-tee1/raspbian-tee/optee_os/lib/libutee/tee_api_objects.c:582
    1540:	f001 ef52 	blx	33e8 <utee_storage_reset_enum>
/home/st/Desktop/Raspbian-optee/raspbian-optee/raspbian-tee1/raspbian-tee/optee_os/lib/libutee/tee_api_objects.c:584
    1544:	b118      	cbz	r0, 154e <TEE_ResetPersistentObjectEnumerator+0x12>
/home/st/Desktop/Raspbian-optee/raspbian-optee/raspbian-tee1/raspbian-tee/optee_os/lib/libutee/tee_api_objects.c:586
    1546:	e8bd 4008 	ldmia.w	sp!, {r3, lr}
/home/st/Desktop/Raspbian-optee/raspbian-optee/raspbian-tee1/raspbian-tee/optee_os/lib/libutee/tee_api_objects.c:585
    154a:	f006 bb2a 	b.w	7ba2 <TEE_Panic>
/home/st/Desktop/Raspbian-optee/raspbian-optee/raspbian-tee1/raspbian-tee/optee_os/lib/libutee/tee_api_objects.c:586
    154e:	bd08      	pop	{r3, pc}

00001550 <TEE_StartPersistentObjectEnumerator>:
TEE_StartPersistentObjectEnumerator():
/home/st/Desktop/Raspbian-optee/raspbian-optee/raspbian-tee1/raspbian-tee/optee_os/lib/libutee/tee_api_objects.c:591
    1550:	b510      	push	{r4, lr}
/home/st/Desktop/Raspbian-optee/raspbian-optee/raspbian-tee1/raspbian-tee/optee_os/lib/libutee/tee_api_objects.c:594
    1552:	f001 ef54 	blx	33fc <utee_storage_start_enum>
/home/st/Desktop/Raspbian-optee/raspbian-optee/raspbian-tee1/raspbian-tee/optee_os/lib/libutee/tee_api_objects.c:597
    1556:	4604      	mov	r4, r0
    1558:	b148      	cbz	r0, 156e <TEE_StartPersistentObjectEnumerator+0x1e>
/home/st/Desktop/Raspbian-optee/raspbian-optee/raspbian-tee1/raspbian-tee/optee_os/lib/libutee/tee_api_objects.c:597 (discriminator 1)
    155a:	4b06      	ldr	r3, [pc, #24]	; (1574 <TEE_StartPersistentObjectEnumerator+0x24>)
    155c:	4298      	cmp	r0, r3
    155e:	d006      	beq.n	156e <TEE_StartPersistentObjectEnumerator+0x1e>
/home/st/Desktop/Raspbian-optee/raspbian-optee/raspbian-tee1/raspbian-tee/optee_os/lib/libutee/tee_api_objects.c:598
    1560:	4b05      	ldr	r3, [pc, #20]	; (1578 <TEE_StartPersistentObjectEnumerator+0x28>)
    1562:	f020 0202 	bic.w	r2, r0, #2
    1566:	429a      	cmp	r2, r3
    1568:	d001      	beq.n	156e <TEE_StartPersistentObjectEnumerator+0x1e>
/home/st/Desktop/Raspbian-optee/raspbian-optee/raspbian-tee1/raspbian-tee/optee_os/lib/libutee/tee_api_objects.c:601
    156a:	f006 fb1a 	bl	7ba2 <TEE_Panic>
/home/st/Desktop/Raspbian-optee/raspbian-optee/raspbian-tee1/raspbian-tee/optee_os/lib/libutee/tee_api_objects.c:604
    156e:	4620      	mov	r0, r4
    1570:	bd10      	pop	{r4, pc}
    1572:	bf00      	nop
    1574:	ffff0008 	.word	0xffff0008
    1578:	f0100001 	.word	0xf0100001

0000157c <TEE_GetNextPersistentObject>:
TEE_GetNextPersistentObject():
/home/st/Desktop/Raspbian-optee/raspbian-optee/raspbian-tee1/raspbian-tee/optee_os/lib/libutee/tee_api_objects.c:609
    157c:	b510      	push	{r4, lr}
    157e:	461c      	mov	r4, r3
    1580:	b08a      	sub	sp, #40	; 0x28
/home/st/Desktop/Raspbian-optee/raspbian-optee/raspbian-tee1/raspbian-tee/optee_os/lib/libutee/tee_api_objects.c:615
    1582:	b1e2      	cbz	r2, 15be <TEE_GetNextPersistentObject+0x42>
/home/st/Desktop/Raspbian-optee/raspbian-optee/raspbian-tee1/raspbian-tee/optee_os/lib/libutee/tee_api_objects.c:620
    1584:	b1db      	cbz	r3, 15be <TEE_GetNextPersistentObject+0x42>
/home/st/Desktop/Raspbian-optee/raspbian-optee/raspbian-tee1/raspbian-tee/optee_os/lib/libutee/tee_api_objects.c:625
    1586:	b901      	cbnz	r1, 158a <TEE_GetNextPersistentObject+0xe>
/home/st/Desktop/Raspbian-optee/raspbian-optee/raspbian-tee1/raspbian-tee/optee_os/lib/libutee/tee_api_objects.c:628
    1588:	a903      	add	r1, sp, #12
/home/st/Desktop/Raspbian-optee/raspbian-optee/raspbian-tee1/raspbian-tee/optee_os/lib/libutee/tee_api_objects.c:629
    158a:	6823      	ldr	r3, [r4, #0]
    158c:	9300      	str	r3, [sp, #0]
    158e:	2300      	movs	r3, #0
    1590:	9301      	str	r3, [sp, #4]
/home/st/Desktop/Raspbian-optee/raspbian-optee/raspbian-tee1/raspbian-tee/optee_os/lib/libutee/tee_api_objects.c:630
    1592:	466b      	mov	r3, sp
    1594:	f001 ef3c 	blx	3410 <utee_storage_next_enum>
/home/st/Desktop/Raspbian-optee/raspbian-optee/raspbian-tee1/raspbian-tee/optee_os/lib/libutee/tee_api_objects.c:632
    1598:	9b00      	ldr	r3, [sp, #0]
    159a:	6023      	str	r3, [r4, #0]
/home/st/Desktop/Raspbian-optee/raspbian-optee/raspbian-tee1/raspbian-tee/optee_os/lib/libutee/tee_api_objects.c:635
    159c:	4604      	mov	r4, r0
    159e:	b158      	cbz	r0, 15b8 <TEE_GetNextPersistentObject+0x3c>
/home/st/Desktop/Raspbian-optee/raspbian-optee/raspbian-tee1/raspbian-tee/optee_os/lib/libutee/tee_api_objects.c:635 (discriminator 1)
    15a0:	4b08      	ldr	r3, [pc, #32]	; (15c4 <TEE_GetNextPersistentObject+0x48>)
    15a2:	4298      	cmp	r0, r3
    15a4:	d008      	beq.n	15b8 <TEE_GetNextPersistentObject+0x3c>
/home/st/Desktop/Raspbian-optee/raspbian-optee/raspbian-tee1/raspbian-tee/optee_os/lib/libutee/tee_api_objects.c:636
    15a6:	4b08      	ldr	r3, [pc, #32]	; (15c8 <TEE_GetNextPersistentObject+0x4c>)
    15a8:	4298      	cmp	r0, r3
    15aa:	d005      	beq.n	15b8 <TEE_GetNextPersistentObject+0x3c>
/home/st/Desktop/Raspbian-optee/raspbian-optee/raspbian-tee1/raspbian-tee/optee_os/lib/libutee/tee_api_objects.c:637
    15ac:	3302      	adds	r3, #2
    15ae:	4298      	cmp	r0, r3
    15b0:	d002      	beq.n	15b8 <TEE_GetNextPersistentObject+0x3c>
/home/st/Desktop/Raspbian-optee/raspbian-optee/raspbian-tee1/raspbian-tee/optee_os/lib/libutee/tee_api_objects.c:639
    15b2:	4620      	mov	r0, r4
    15b4:	f006 faf5 	bl	7ba2 <TEE_Panic>
/home/st/Desktop/Raspbian-optee/raspbian-optee/raspbian-tee1/raspbian-tee/optee_os/lib/libutee/tee_api_objects.c:642
    15b8:	4620      	mov	r0, r4
    15ba:	b00a      	add	sp, #40	; 0x28
    15bc:	bd10      	pop	{r4, pc}
    15be:	4c03      	ldr	r4, [pc, #12]	; (15cc <TEE_GetNextPersistentObject+0x50>)
    15c0:	e7f7      	b.n	15b2 <TEE_GetNextPersistentObject+0x36>
    15c2:	bf00      	nop
    15c4:	ffff0008 	.word	0xffff0008
    15c8:	f0100001 	.word	0xf0100001
    15cc:	ffff0006 	.word	0xffff0006

000015d0 <TEE_ReadObjectData>:
TEE_ReadObjectData():
/home/st/Desktop/Raspbian-optee/raspbian-optee/raspbian-tee1/raspbian-tee/optee_os/lib/libutee/tee_api_objects.c:648
    15d0:	b513      	push	{r0, r1, r4, lr}
    15d2:	461c      	mov	r4, r3
/home/st/Desktop/Raspbian-optee/raspbian-optee/raspbian-tee1/raspbian-tee/optee_os/lib/libutee/tee_api_objects.c:652
    15d4:	b1b0      	cbz	r0, 1604 <TEE_ReadObjectData+0x34>
/home/st/Desktop/Raspbian-optee/raspbian-optee/raspbian-tee1/raspbian-tee/optee_os/lib/libutee/tee_api_objects.c:657
    15d6:	681b      	ldr	r3, [r3, #0]
    15d8:	9300      	str	r3, [sp, #0]
    15da:	2300      	movs	r3, #0
    15dc:	9301      	str	r3, [sp, #4]
/home/st/Desktop/Raspbian-optee/raspbian-optee/raspbian-tee1/raspbian-tee/optee_os/lib/libutee/tee_api_objects.c:658
    15de:	466b      	mov	r3, sp
    15e0:	f001 ef20 	blx	3424 <utee_storage_obj_read>
/home/st/Desktop/Raspbian-optee/raspbian-optee/raspbian-tee1/raspbian-tee/optee_os/lib/libutee/tee_api_objects.c:660
    15e4:	9b00      	ldr	r3, [sp, #0]
    15e6:	6023      	str	r3, [r4, #0]
/home/st/Desktop/Raspbian-optee/raspbian-optee/raspbian-tee1/raspbian-tee/optee_os/lib/libutee/tee_api_objects.c:663
    15e8:	4604      	mov	r4, r0
    15ea:	b140      	cbz	r0, 15fe <TEE_ReadObjectData+0x2e>
/home/st/Desktop/Raspbian-optee/raspbian-optee/raspbian-tee1/raspbian-tee/optee_os/lib/libutee/tee_api_objects.c:663 (discriminator 1)
    15ec:	4b06      	ldr	r3, [pc, #24]	; (1608 <TEE_ReadObjectData+0x38>)
    15ee:	4298      	cmp	r0, r3
    15f0:	d005      	beq.n	15fe <TEE_ReadObjectData+0x2e>
/home/st/Desktop/Raspbian-optee/raspbian-optee/raspbian-tee1/raspbian-tee/optee_os/lib/libutee/tee_api_objects.c:664
    15f2:	3302      	adds	r3, #2
    15f4:	4298      	cmp	r0, r3
    15f6:	d002      	beq.n	15fe <TEE_ReadObjectData+0x2e>
/home/st/Desktop/Raspbian-optee/raspbian-optee/raspbian-tee1/raspbian-tee/optee_os/lib/libutee/tee_api_objects.c:666
    15f8:	4620      	mov	r0, r4
    15fa:	f006 fad2 	bl	7ba2 <TEE_Panic>
/home/st/Desktop/Raspbian-optee/raspbian-optee/raspbian-tee1/raspbian-tee/optee_os/lib/libutee/tee_api_objects.c:669
    15fe:	4620      	mov	r0, r4
    1600:	b002      	add	sp, #8
    1602:	bd10      	pop	{r4, pc}
/home/st/Desktop/Raspbian-optee/raspbian-optee/raspbian-tee1/raspbian-tee/optee_os/lib/libutee/tee_api_objects.c:653
    1604:	4c01      	ldr	r4, [pc, #4]	; (160c <TEE_ReadObjectData+0x3c>)
    1606:	e7f7      	b.n	15f8 <TEE_ReadObjectData+0x28>
    1608:	f0100001 	.word	0xf0100001
    160c:	ffff0006 	.word	0xffff0006

00001610 <TEE_WriteObjectData>:
TEE_WriteObjectData():
/home/st/Desktop/Raspbian-optee/raspbian-optee/raspbian-tee1/raspbian-tee/optee_os/lib/libutee/tee_api_objects.c:673
    1610:	b510      	push	{r4, lr}
/home/st/Desktop/Raspbian-optee/raspbian-optee/raspbian-tee1/raspbian-tee/optee_os/lib/libutee/tee_api_objects.c:676
    1612:	b1a0      	cbz	r0, 163e <TEE_WriteObjectData+0x2e>
/home/st/Desktop/Raspbian-optee/raspbian-optee/raspbian-tee1/raspbian-tee/optee_os/lib/libutee/tee_api_objects.c:686
    1614:	f001 ef10 	blx	3438 <utee_storage_obj_write>
/home/st/Desktop/Raspbian-optee/raspbian-optee/raspbian-tee1/raspbian-tee/optee_os/lib/libutee/tee_api_objects.c:689
    1618:	4604      	mov	r4, r0
    161a:	b170      	cbz	r0, 163a <TEE_WriteObjectData+0x2a>
/home/st/Desktop/Raspbian-optee/raspbian-optee/raspbian-tee1/raspbian-tee/optee_os/lib/libutee/tee_api_objects.c:689 (discriminator 1)
    161c:	4b09      	ldr	r3, [pc, #36]	; (1644 <TEE_WriteObjectData+0x34>)
    161e:	4298      	cmp	r0, r3
    1620:	d00b      	beq.n	163a <TEE_WriteObjectData+0x2a>
/home/st/Desktop/Raspbian-optee/raspbian-optee/raspbian-tee1/raspbian-tee/optee_os/lib/libutee/tee_api_objects.c:690
    1622:	3b32      	subs	r3, #50	; 0x32
    1624:	4298      	cmp	r0, r3
    1626:	d008      	beq.n	163a <TEE_WriteObjectData+0x2a>
/home/st/Desktop/Raspbian-optee/raspbian-optee/raspbian-tee1/raspbian-tee/optee_os/lib/libutee/tee_api_objects.c:691
    1628:	4b07      	ldr	r3, [pc, #28]	; (1648 <TEE_WriteObjectData+0x38>)
    162a:	4298      	cmp	r0, r3
    162c:	d005      	beq.n	163a <TEE_WriteObjectData+0x2a>
/home/st/Desktop/Raspbian-optee/raspbian-optee/raspbian-tee1/raspbian-tee/optee_os/lib/libutee/tee_api_objects.c:692
    162e:	3302      	adds	r3, #2
    1630:	4298      	cmp	r0, r3
    1632:	d002      	beq.n	163a <TEE_WriteObjectData+0x2a>
/home/st/Desktop/Raspbian-optee/raspbian-optee/raspbian-tee1/raspbian-tee/optee_os/lib/libutee/tee_api_objects.c:694
    1634:	4620      	mov	r0, r4
    1636:	f006 fab4 	bl	7ba2 <TEE_Panic>
/home/st/Desktop/Raspbian-optee/raspbian-optee/raspbian-tee1/raspbian-tee/optee_os/lib/libutee/tee_api_objects.c:697
    163a:	4620      	mov	r0, r4
    163c:	bd10      	pop	{r4, pc}
/home/st/Desktop/Raspbian-optee/raspbian-optee/raspbian-tee1/raspbian-tee/optee_os/lib/libutee/tee_api_objects.c:677
    163e:	4c03      	ldr	r4, [pc, #12]	; (164c <TEE_WriteObjectData+0x3c>)
    1640:	e7f8      	b.n	1634 <TEE_WriteObjectData+0x24>
    1642:	bf00      	nop
    1644:	ffff3041 	.word	0xffff3041
    1648:	f0100001 	.word	0xf0100001
    164c:	ffff0006 	.word	0xffff0006

00001650 <TEE_TruncateObjectData>:
TEE_TruncateObjectData():
/home/st/Desktop/Raspbian-optee/raspbian-optee/raspbian-tee1/raspbian-tee/optee_os/lib/libutee/tee_api_objects.c:700
    1650:	b510      	push	{r4, lr}
/home/st/Desktop/Raspbian-optee/raspbian-optee/raspbian-tee1/raspbian-tee/optee_os/lib/libutee/tee_api_objects.c:703
    1652:	b188      	cbz	r0, 1678 <TEE_TruncateObjectData+0x28>
/home/st/Desktop/Raspbian-optee/raspbian-optee/raspbian-tee1/raspbian-tee/optee_os/lib/libutee/tee_api_objects.c:708
    1654:	f001 eefa 	blx	344c <utee_storage_obj_trunc>
/home/st/Desktop/Raspbian-optee/raspbian-optee/raspbian-tee1/raspbian-tee/optee_os/lib/libutee/tee_api_objects.c:711
    1658:	4604      	mov	r4, r0
    165a:	b158      	cbz	r0, 1674 <TEE_TruncateObjectData+0x24>
/home/st/Desktop/Raspbian-optee/raspbian-optee/raspbian-tee1/raspbian-tee/optee_os/lib/libutee/tee_api_objects.c:711 (discriminator 1)
    165c:	4b07      	ldr	r3, [pc, #28]	; (167c <TEE_TruncateObjectData+0x2c>)
    165e:	4298      	cmp	r0, r3
    1660:	d008      	beq.n	1674 <TEE_TruncateObjectData+0x24>
/home/st/Desktop/Raspbian-optee/raspbian-optee/raspbian-tee1/raspbian-tee/optee_os/lib/libutee/tee_api_objects.c:712
    1662:	4b07      	ldr	r3, [pc, #28]	; (1680 <TEE_TruncateObjectData+0x30>)
    1664:	4298      	cmp	r0, r3
    1666:	d005      	beq.n	1674 <TEE_TruncateObjectData+0x24>
/home/st/Desktop/Raspbian-optee/raspbian-optee/raspbian-tee1/raspbian-tee/optee_os/lib/libutee/tee_api_objects.c:713
    1668:	3302      	adds	r3, #2
    166a:	4298      	cmp	r0, r3
    166c:	d002      	beq.n	1674 <TEE_TruncateObjectData+0x24>
/home/st/Desktop/Raspbian-optee/raspbian-optee/raspbian-tee1/raspbian-tee/optee_os/lib/libutee/tee_api_objects.c:715
    166e:	4620      	mov	r0, r4
    1670:	f006 fa97 	bl	7ba2 <TEE_Panic>
/home/st/Desktop/Raspbian-optee/raspbian-optee/raspbian-tee1/raspbian-tee/optee_os/lib/libutee/tee_api_objects.c:718
    1674:	4620      	mov	r0, r4
    1676:	bd10      	pop	{r4, pc}
/home/st/Desktop/Raspbian-optee/raspbian-optee/raspbian-tee1/raspbian-tee/optee_os/lib/libutee/tee_api_objects.c:704
    1678:	4c02      	ldr	r4, [pc, #8]	; (1684 <TEE_TruncateObjectData+0x34>)
    167a:	e7f8      	b.n	166e <TEE_TruncateObjectData+0x1e>
    167c:	ffff3041 	.word	0xffff3041
    1680:	f0100001 	.word	0xf0100001
    1684:	ffff0006 	.word	0xffff0006

00001688 <TEE_SeekObjectData>:
TEE_SeekObjectData():
/home/st/Desktop/Raspbian-optee/raspbian-optee/raspbian-tee1/raspbian-tee/optee_os/lib/libutee/tee_api_objects.c:722
    1688:	b5f0      	push	{r4, r5, r6, r7, lr}
    168a:	460d      	mov	r5, r1
    168c:	4616      	mov	r6, r2
    168e:	b089      	sub	sp, #36	; 0x24
/home/st/Desktop/Raspbian-optee/raspbian-optee/raspbian-tee1/raspbian-tee/optee_os/lib/libutee/tee_api_objects.c:726
    1690:	4607      	mov	r7, r0
    1692:	b368      	cbz	r0, 16f0 <TEE_SeekObjectData+0x68>
/home/st/Desktop/Raspbian-optee/raspbian-optee/raspbian-tee1/raspbian-tee/optee_os/lib/libutee/tee_api_objects.c:731
    1694:	a901      	add	r1, sp, #4
    1696:	f001 edb2 	blx	31fc <utee_cryp_obj_get_info>
/home/st/Desktop/Raspbian-optee/raspbian-optee/raspbian-tee1/raspbian-tee/optee_os/lib/libutee/tee_api_objects.c:732
    169a:	4604      	mov	r4, r0
    169c:	b9f0      	cbnz	r0, 16dc <TEE_SeekObjectData+0x54>
/home/st/Desktop/Raspbian-optee/raspbian-optee/raspbian-tee1/raspbian-tee/optee_os/lib/libutee/tee_api_objects.c:735
    169e:	2e01      	cmp	r6, #1
    16a0:	d007      	beq.n	16b2 <TEE_SeekObjectData+0x2a>
    16a2:	2e02      	cmp	r6, #2
    16a4:	d00e      	beq.n	16c4 <TEE_SeekObjectData+0x3c>
    16a6:	b18e      	cbz	r6, 16cc <TEE_SeekObjectData+0x44>
    16a8:	4c12      	ldr	r4, [pc, #72]	; (16f4 <TEE_SeekObjectData+0x6c>)
/home/st/Desktop/Raspbian-optee/raspbian-optee/raspbian-tee1/raspbian-tee/optee_os/lib/libutee/tee_api_objects.c:772
    16aa:	4620      	mov	r0, r4
    16ac:	f006 fa79 	bl	7ba2 <TEE_Panic>
/home/st/Desktop/Raspbian-optee/raspbian-optee/raspbian-tee1/raspbian-tee/optee_os/lib/libutee/tee_api_objects.c:774
    16b0:	e005      	b.n	16be <TEE_SeekObjectData+0x36>
/home/st/Desktop/Raspbian-optee/raspbian-optee/raspbian-tee1/raspbian-tee/optee_os/lib/libutee/tee_api_objects.c:743
    16b2:	2d00      	cmp	r5, #0
    16b4:	dd0a      	ble.n	16cc <TEE_SeekObjectData+0x44>
/home/st/Desktop/Raspbian-optee/raspbian-optee/raspbian-tee1/raspbian-tee/optee_os/lib/libutee/tee_api_objects.c:743 (discriminator 1)
    16b6:	9b06      	ldr	r3, [sp, #24]
    16b8:	42dd      	cmn	r5, r3
    16ba:	d307      	bcc.n	16cc <TEE_SeekObjectData+0x44>
/home/st/Desktop/Raspbian-optee/raspbian-optee/raspbian-tee1/raspbian-tee/optee_os/lib/libutee/tee_api_objects.c:748
    16bc:	4c0e      	ldr	r4, [pc, #56]	; (16f8 <TEE_SeekObjectData+0x70>)
/home/st/Desktop/Raspbian-optee/raspbian-optee/raspbian-tee1/raspbian-tee/optee_os/lib/libutee/tee_api_objects.c:775
    16be:	4620      	mov	r0, r4
    16c0:	b009      	add	sp, #36	; 0x24
    16c2:	bdf0      	pop	{r4, r5, r6, r7, pc}
/home/st/Desktop/Raspbian-optee/raspbian-optee/raspbian-tee1/raspbian-tee/optee_os/lib/libutee/tee_api_objects.c:753
    16c4:	2d00      	cmp	r5, #0
    16c6:	dd01      	ble.n	16cc <TEE_SeekObjectData+0x44>
/home/st/Desktop/Raspbian-optee/raspbian-optee/raspbian-tee1/raspbian-tee/optee_os/lib/libutee/tee_api_objects.c:753 (discriminator 1)
    16c8:	9b05      	ldr	r3, [sp, #20]
    16ca:	e7f5      	b.n	16b8 <TEE_SeekObjectData+0x30>
/home/st/Desktop/Raspbian-optee/raspbian-optee/raspbian-tee1/raspbian-tee/optee_os/lib/libutee/tee_api_objects.c:765
    16cc:	4632      	mov	r2, r6
    16ce:	4629      	mov	r1, r5
    16d0:	4638      	mov	r0, r7
    16d2:	f001 eec6 	blx	3460 <utee_storage_obj_seek>
/home/st/Desktop/Raspbian-optee/raspbian-optee/raspbian-tee1/raspbian-tee/optee_os/lib/libutee/tee_api_objects.c:768
    16d6:	4604      	mov	r4, r0
    16d8:	2800      	cmp	r0, #0
    16da:	d0f0      	beq.n	16be <TEE_SeekObjectData+0x36>
    16dc:	4b06      	ldr	r3, [pc, #24]	; (16f8 <TEE_SeekObjectData+0x70>)
    16de:	429c      	cmp	r4, r3
    16e0:	d0ec      	beq.n	16bc <TEE_SeekObjectData+0x34>
/home/st/Desktop/Raspbian-optee/raspbian-optee/raspbian-tee1/raspbian-tee/optee_os/lib/libutee/tee_api_objects.c:769
    16e2:	4b06      	ldr	r3, [pc, #24]	; (16fc <TEE_SeekObjectData+0x74>)
    16e4:	429c      	cmp	r4, r3
    16e6:	d0ea      	beq.n	16be <TEE_SeekObjectData+0x36>
/home/st/Desktop/Raspbian-optee/raspbian-optee/raspbian-tee1/raspbian-tee/optee_os/lib/libutee/tee_api_objects.c:770
    16e8:	3302      	adds	r3, #2
    16ea:	429c      	cmp	r4, r3
    16ec:	d0e7      	beq.n	16be <TEE_SeekObjectData+0x36>
    16ee:	e7dc      	b.n	16aa <TEE_SeekObjectData+0x22>
/home/st/Desktop/Raspbian-optee/raspbian-optee/raspbian-tee1/raspbian-tee/optee_os/lib/libutee/tee_api_objects.c:727
    16f0:	4c03      	ldr	r4, [pc, #12]	; (1700 <TEE_SeekObjectData+0x78>)
    16f2:	e7da      	b.n	16aa <TEE_SeekObjectData+0x22>
    16f4:	ffff0008 	.word	0xffff0008
    16f8:	ffff300f 	.word	0xffff300f
    16fc:	f0100001 	.word	0xf0100001
    1700:	ffff0006 	.word	0xffff0006

00001704 <tee_buffer_update>:
tee_buffer_update():
/home/st/Desktop/Raspbian-optee/raspbian-optee/raspbian-tee1/raspbian-tee/optee_os/lib/libutee/tee_api_operations.c:852
    1704:	e92d 4ff0 	stmdb	sp!, {r4, r5, r6, r7, r8, r9, sl, fp, lr}
    1708:	4604      	mov	r4, r0
    170a:	460e      	mov	r6, r1
    170c:	b089      	sub	sp, #36	; 0x24
    170e:	461d      	mov	r5, r3
    1710:	f8dd b048 	ldr.w	fp, [sp, #72]	; 0x48
/home/st/Desktop/Raspbian-optee/raspbian-optee/raspbian-tee1/raspbian-tee/optee_os/lib/libutee/tee_api_operations.c:864
    1714:	9203      	str	r2, [sp, #12]
    1716:	b962      	cbnz	r2, 1732 <tee_buffer_update+0x2e>
/home/st/Desktop/Raspbian-optee/raspbian-optee/raspbian-tee1/raspbian-tee/optee_os/lib/libutee/tee_api_operations.c:865
    1718:	b93d      	cbnz	r5, 172a <tee_buffer_update+0x26>
/home/st/Desktop/Raspbian-optee/raspbian-optee/raspbian-tee1/raspbian-tee/optee_os/lib/libutee/tee_api_operations.c:858
    171a:	2700      	movs	r7, #0
/home/st/Desktop/Raspbian-optee/raspbian-optee/raspbian-tee1/raspbian-tee/optee_os/lib/libutee/tee_api_operations.c:940
    171c:	9b13      	ldr	r3, [sp, #76]	; 0x4c
    171e:	2000      	movs	r0, #0
    1720:	e9c3 7000 	strd	r7, r0, [r3]
/home/st/Desktop/Raspbian-optee/raspbian-optee/raspbian-tee1/raspbian-tee/optee_os/lib/libutee/tee_api_operations.c:942
    1724:	b009      	add	sp, #36	; 0x24
    1726:	e8bd 8ff0 	ldmia.w	sp!, {r4, r5, r6, r7, r8, r9, sl, fp, pc}
/home/st/Desktop/Raspbian-optee/raspbian-optee/raspbian-tee1/raspbian-tee/optee_os/lib/libutee/tee_api_operations.c:866
    172a:	9803      	ldr	r0, [sp, #12]
    172c:	f006 fa39 	bl	7ba2 <TEE_Panic>
    1730:	e7f3      	b.n	171a <tee_buffer_update+0x16>
/home/st/Desktop/Raspbian-optee/raspbian-optee/raspbian-tee1/raspbian-tee/optee_os/lib/libutee/tee_api_operations.c:870
    1732:	f890 9030 	ldrb.w	r9, [r0, #48]	; 0x30
    1736:	6b47      	ldr	r7, [r0, #52]	; 0x34
    1738:	f1b9 0f00 	cmp.w	r9, #0
    173c:	d062      	beq.n	1804 <tee_buffer_update+0x100>
/home/st/Desktop/Raspbian-optee/raspbian-optee/raspbian-tee1/raspbian-tee/optee_os/lib/libutee/tee_api_operations.c:871
    173e:	ea4f 0a47 	mov.w	sl, r7, lsl #1
/home/st/Desktop/Raspbian-optee/raspbian-optee/raspbian-tee1/raspbian-tee/optee_os/lib/libutee/tee_api_operations.c:872
    1742:	f04f 0901 	mov.w	r9, #1
/home/st/Desktop/Raspbian-optee/raspbian-optee/raspbian-tee1/raspbian-tee/optee_os/lib/libutee/tee_api_operations.c:857
    1746:	9b13      	ldr	r3, [sp, #76]	; 0x4c
/home/st/Desktop/Raspbian-optee/raspbian-optee/raspbian-tee1/raspbian-tee/optee_os/lib/libutee/tee_api_operations.c:878
    1748:	6ba0      	ldr	r0, [r4, #56]	; 0x38
/home/st/Desktop/Raspbian-optee/raspbian-optee/raspbian-tee1/raspbian-tee/optee_os/lib/libutee/tee_api_operations.c:857
    174a:	e9d3 2300 	ldrd	r2, r3, [r3]
    174e:	e9cd 2304 	strd	r2, r3, [sp, #16]
/home/st/Desktop/Raspbian-optee/raspbian-optee/raspbian-tee1/raspbian-tee/optee_os/lib/libutee/tee_api_operations.c:878
    1752:	b1c8      	cbz	r0, 1788 <tee_buffer_update+0x84>
/home/st/Desktop/Raspbian-optee/raspbian-optee/raspbian-tee1/raspbian-tee/optee_os/lib/libutee/tee_api_operations.c:880
    1754:	42b8      	cmp	r0, r7
    1756:	d257      	bcs.n	1808 <tee_buffer_update+0x104>
/home/st/Desktop/Raspbian-optee/raspbian-optee/raspbian-tee1/raspbian-tee/optee_os/lib/libutee/tee_api_operations.c:881
    1758:	1a3f      	subs	r7, r7, r0
/home/st/Desktop/Raspbian-optee/raspbian-optee/raspbian-tee1/raspbian-tee/optee_os/lib/libutee/tee_api_operations.c:884
    175a:	6ae3      	ldr	r3, [r4, #44]	; 0x2c
/home/st/Desktop/Raspbian-optee/raspbian-optee/raspbian-tee1/raspbian-tee/optee_os/lib/libutee/tee_api_operations.c:883
    175c:	42af      	cmp	r7, r5
    175e:	bf28      	it	cs
    1760:	462f      	movcs	r7, r5
/home/st/Desktop/Raspbian-optee/raspbian-optee/raspbian-tee1/raspbian-tee/optee_os/lib/libutee/tee_api_operations.c:884
    1762:	9903      	ldr	r1, [sp, #12]
    1764:	463a      	mov	r2, r7
    1766:	4418      	add	r0, r3
    1768:	f006 fa2b 	bl	7bc2 <memcpy>
/home/st/Desktop/Raspbian-optee/raspbian-optee/raspbian-tee1/raspbian-tee/optee_os/lib/libutee/tee_api_operations.c:885
    176c:	6ba3      	ldr	r3, [r4, #56]	; 0x38
/home/st/Desktop/Raspbian-optee/raspbian-optee/raspbian-tee1/raspbian-tee/optee_os/lib/libutee/tee_api_operations.c:888
    176e:	6b61      	ldr	r1, [r4, #52]	; 0x34
/home/st/Desktop/Raspbian-optee/raspbian-optee/raspbian-tee1/raspbian-tee/optee_os/lib/libutee/tee_api_operations.c:885
    1770:	443b      	add	r3, r7
    1772:	63a3      	str	r3, [r4, #56]	; 0x38
/home/st/Desktop/Raspbian-optee/raspbian-optee/raspbian-tee1/raspbian-tee/optee_os/lib/libutee/tee_api_operations.c:888
    1774:	fbb3 f2f1 	udiv	r2, r3, r1
    1778:	fb01 3312 	mls	r3, r1, r2, r3
    177c:	2b00      	cmp	r3, #0
    177e:	d1cc      	bne.n	171a <tee_buffer_update+0x16>
/home/st/Desktop/Raspbian-optee/raspbian-optee/raspbian-tee1/raspbian-tee/optee_os/lib/libutee/tee_api_operations.c:886
    1780:	9b03      	ldr	r3, [sp, #12]
/home/st/Desktop/Raspbian-optee/raspbian-optee/raspbian-tee1/raspbian-tee/optee_os/lib/libutee/tee_api_operations.c:887
    1782:	1bed      	subs	r5, r5, r7
/home/st/Desktop/Raspbian-optee/raspbian-optee/raspbian-tee1/raspbian-tee/optee_os/lib/libutee/tee_api_operations.c:886
    1784:	443b      	add	r3, r7
    1786:	9303      	str	r3, [sp, #12]
/home/st/Desktop/Raspbian-optee/raspbian-optee/raspbian-tee1/raspbian-tee/optee_os/lib/libutee/tee_api_operations.c:893
    1788:	6ba7      	ldr	r7, [r4, #56]	; 0x38
    178a:	44d1      	add	r9, sl
/home/st/Desktop/Raspbian-optee/raspbian-optee/raspbian-tee1/raspbian-tee/optee_os/lib/libutee/tee_api_operations.c:857
    178c:	9904      	ldr	r1, [sp, #16]
/home/st/Desktop/Raspbian-optee/raspbian-optee/raspbian-tee1/raspbian-tee/optee_os/lib/libutee/tee_api_operations.c:893
    178e:	2f00      	cmp	r7, #0
    1790:	d03e      	beq.n	1810 <tee_buffer_update+0x10c>
/home/st/Desktop/Raspbian-optee/raspbian-optee/raspbian-tee1/raspbian-tee/optee_os/lib/libutee/tee_api_operations.c:894 (discriminator 1)
    1792:	197a      	adds	r2, r7, r5
/home/st/Desktop/Raspbian-optee/raspbian-optee/raspbian-tee1/raspbian-tee/optee_os/lib/libutee/tee_api_operations.c:893 (discriminator 1)
    1794:	454a      	cmp	r2, r9
    1796:	d33a      	bcc.n	180e <tee_buffer_update+0x10a>
/home/st/Desktop/Raspbian-optee/raspbian-optee/raspbian-tee1/raspbian-tee/optee_os/lib/libutee/tee_api_operations.c:895
    1798:	6b63      	ldr	r3, [r4, #52]	; 0x34
/home/st/Desktop/Raspbian-optee/raspbian-optee/raspbian-tee1/raspbian-tee/optee_os/lib/libutee/tee_api_operations.c:899
    179a:	6ae1      	ldr	r1, [r4, #44]	; 0x2c
/home/st/Desktop/Raspbian-optee/raspbian-optee/raspbian-tee1/raspbian-tee/optee_os/lib/libutee/tee_api_operations.c:895
    179c:	f103 38ff 	add.w	r8, r3, #4294967295	; 0xffffffff
    17a0:	425b      	negs	r3, r3
    17a2:	eba8 080a 	sub.w	r8, r8, sl
/home/st/Desktop/Raspbian-optee/raspbian-optee/raspbian-tee1/raspbian-tee/optee_os/lib/libutee/tee_api_operations.c:899
    17a6:	6be0      	ldr	r0, [r4, #60]	; 0x3c
/home/st/Desktop/Raspbian-optee/raspbian-optee/raspbian-tee1/raspbian-tee/optee_os/lib/libutee/tee_api_operations.c:895
    17a8:	4490      	add	r8, r2
    17aa:	ea08 0803 	and.w	r8, r8, r3
/home/st/Desktop/Raspbian-optee/raspbian-optee/raspbian-tee1/raspbian-tee/optee_os/lib/libutee/tee_api_operations.c:897
    17ae:	45b8      	cmp	r8, r7
/home/st/Desktop/Raspbian-optee/raspbian-optee/raspbian-tee1/raspbian-tee/optee_os/lib/libutee/tee_api_operations.c:898
    17b0:	e9dd 2304 	ldrd	r2, r3, [sp, #16]
/home/st/Desktop/Raspbian-optee/raspbian-optee/raspbian-tee1/raspbian-tee/optee_os/lib/libutee/tee_api_operations.c:897
    17b4:	bf28      	it	cs
    17b6:	46b8      	movcs	r8, r7
/home/st/Desktop/Raspbian-optee/raspbian-optee/raspbian-tee1/raspbian-tee/optee_os/lib/libutee/tee_api_operations.c:898
    17b8:	2300      	movs	r3, #0
    17ba:	e9cd 2306 	strd	r2, r3, [sp, #24]
/home/st/Desktop/Raspbian-optee/raspbian-optee/raspbian-tee1/raspbian-tee/optee_os/lib/libutee/tee_api_operations.c:899
    17be:	ab06      	add	r3, sp, #24
    17c0:	4642      	mov	r2, r8
    17c2:	9300      	str	r3, [sp, #0]
    17c4:	465b      	mov	r3, fp
    17c6:	47b0      	blx	r6
/home/st/Desktop/Raspbian-optee/raspbian-optee/raspbian-tee1/raspbian-tee/optee_os/lib/libutee/tee_api_operations.c:900
    17c8:	b108      	cbz	r0, 17ce <tee_buffer_update+0xca>
/home/st/Desktop/Raspbian-optee/raspbian-optee/raspbian-tee1/raspbian-tee/optee_os/lib/libutee/tee_api_operations.c:901
    17ca:	f006 f9ea 	bl	7ba2 <TEE_Panic>
/home/st/Desktop/Raspbian-optee/raspbian-optee/raspbian-tee1/raspbian-tee/optee_os/lib/libutee/tee_api_operations.c:902
    17ce:	9f06      	ldr	r7, [sp, #24]
/home/st/Desktop/Raspbian-optee/raspbian-optee/raspbian-tee1/raspbian-tee/optee_os/lib/libutee/tee_api_operations.c:903
    17d0:	9b04      	ldr	r3, [sp, #16]
/home/st/Desktop/Raspbian-optee/raspbian-optee/raspbian-tee1/raspbian-tee/optee_os/lib/libutee/tee_api_operations.c:902
    17d2:	44bb      	add	fp, r7
/home/st/Desktop/Raspbian-optee/raspbian-optee/raspbian-tee1/raspbian-tee/optee_os/lib/libutee/tee_api_operations.c:903
    17d4:	1bd9      	subs	r1, r3, r7
/home/st/Desktop/Raspbian-optee/raspbian-optee/raspbian-tee1/raspbian-tee/optee_os/lib/libutee/tee_api_operations.c:905
    17d6:	6ba3      	ldr	r3, [r4, #56]	; 0x38
    17d8:	eba3 0308 	sub.w	r3, r3, r8
    17dc:	63a3      	str	r3, [r4, #56]	; 0x38
/home/st/Desktop/Raspbian-optee/raspbian-optee/raspbian-tee1/raspbian-tee/optee_os/lib/libutee/tee_api_operations.c:906
    17de:	b1bb      	cbz	r3, 1810 <tee_buffer_update+0x10c>
/home/st/Desktop/Raspbian-optee/raspbian-optee/raspbian-tee1/raspbian-tee/optee_os/lib/libutee/tee_api_operations.c:910
    17e0:	6ae0      	ldr	r0, [r4, #44]	; 0x2c
    17e2:	ebaa 0208 	sub.w	r2, sl, r8
    17e6:	eb00 0108 	add.w	r1, r0, r8
    17ea:	f006 f9ea 	bl	7bc2 <memcpy>
/home/st/Desktop/Raspbian-optee/raspbian-optee/raspbian-tee1/raspbian-tee/optee_os/lib/libutee/tee_api_operations.c:936
